
x86_instructionrate:     file format elf64-x86-64


Disassembly of section .init:

0000000000001000 <_init>:
    1000:	f3 0f 1e fa          	endbr64 
    1004:	48 83 ec 08          	sub    $0x8,%rsp
    1008:	48 8b 05 d9 cf 00 00 	mov    0xcfd9(%rip),%rax        # dfe8 <__gmon_start__>
    100f:	48 85 c0             	test   %rax,%rax
    1012:	74 02                	je     1016 <_init+0x16>
    1014:	ff d0                	callq  *%rax
    1016:	48 83 c4 08          	add    $0x8,%rsp
    101a:	c3                   	retq   

Disassembly of section .plt:

0000000000001020 <.plt>:
    1020:	ff 35 62 cf 00 00    	pushq  0xcf62(%rip)        # df88 <_GLOBAL_OFFSET_TABLE_+0x8>
    1026:	ff 25 64 cf 00 00    	jmpq   *0xcf64(%rip)        # df90 <_GLOBAL_OFFSET_TABLE_+0x10>
    102c:	0f 1f 40 00          	nopl   0x0(%rax)

0000000000001030 <strncmp@plt>:
    1030:	ff 25 62 cf 00 00    	jmpq   *0xcf62(%rip)        # df98 <strncmp@GLIBC_2.2.5>
    1036:	68 00 00 00 00       	pushq  $0x0
    103b:	e9 e0 ff ff ff       	jmpq   1020 <.plt>

0000000000001040 <__stack_chk_fail@plt>:
    1040:	ff 25 5a cf 00 00    	jmpq   *0xcf5a(%rip)        # dfa0 <__stack_chk_fail@GLIBC_2.4>
    1046:	68 01 00 00 00       	pushq  $0x1
    104b:	e9 d0 ff ff ff       	jmpq   1020 <.plt>

0000000000001050 <gettimeofday@plt>:
    1050:	ff 25 52 cf 00 00    	jmpq   *0xcf52(%rip)        # dfa8 <gettimeofday@GLIBC_2.2.5>
    1056:	68 02 00 00 00       	pushq  $0x2
    105b:	e9 c0 ff ff ff       	jmpq   1020 <.plt>

0000000000001060 <strcmp@plt>:
    1060:	ff 25 4a cf 00 00    	jmpq   *0xcf4a(%rip)        # dfb0 <strcmp@GLIBC_2.2.5>
    1066:	68 03 00 00 00       	pushq  $0x3
    106b:	e9 b0 ff ff ff       	jmpq   1020 <.plt>

0000000000001070 <strtol@plt>:
    1070:	ff 25 42 cf 00 00    	jmpq   *0xcf42(%rip)        # dfb8 <strtol@GLIBC_2.2.5>
    1076:	68 04 00 00 00       	pushq  $0x4
    107b:	e9 a0 ff ff ff       	jmpq   1020 <.plt>

0000000000001080 <__printf_chk@plt>:
    1080:	ff 25 3a cf 00 00    	jmpq   *0xcf3a(%rip)        # dfc0 <__printf_chk@GLIBC_2.3.4>
    1086:	68 05 00 00 00       	pushq  $0x5
    108b:	e9 90 ff ff ff       	jmpq   1020 <.plt>

0000000000001090 <fwrite@plt>:
    1090:	ff 25 32 cf 00 00    	jmpq   *0xcf32(%rip)        # dfc8 <fwrite@GLIBC_2.2.5>
    1096:	68 06 00 00 00       	pushq  $0x6
    109b:	e9 80 ff ff ff       	jmpq   1020 <.plt>

00000000000010a0 <aligned_alloc@plt>:
    10a0:	ff 25 2a cf 00 00    	jmpq   *0xcf2a(%rip)        # dfd0 <aligned_alloc@GLIBC_2.16>
    10a6:	68 07 00 00 00       	pushq  $0x7
    10ab:	e9 70 ff ff ff       	jmpq   1020 <.plt>

Disassembly of section .plt.got:

00000000000010b0 <__cxa_finalize@plt>:
    10b0:	ff 25 42 cf 00 00    	jmpq   *0xcf42(%rip)        # dff8 <__cxa_finalize@GLIBC_2.2.5>
    10b6:	66 90                	xchg   %ax,%ax

Disassembly of section .text:

00000000000010c0 <main>:
    10c0:	f3 0f 1e fa          	endbr64 
    10c4:	41 57                	push   %r15
    10c6:	41 56                	push   %r14
    10c8:	41 55                	push   %r13
    10ca:	41 54                	push   %r12
    10cc:	41 89 fc             	mov    %edi,%r12d
    10cf:	bf 40 00 00 00       	mov    $0x40,%edi
    10d4:	55                   	push   %rbp
    10d5:	48 89 f5             	mov    %rsi,%rbp
    10d8:	be 00 10 00 00       	mov    $0x1000,%esi
    10dd:	53                   	push   %rbx
    10de:	48 83 ec 58          	sub    $0x58,%rsp
    10e2:	64 48 8b 04 25 28 00 	mov    %fs:0x28,%rax
    10e9:	00 00 
    10eb:	48 89 44 24 48       	mov    %rax,0x48(%rsp)
    10f0:	31 c0                	xor    %eax,%eax
    10f2:	e8 a9 ff ff ff       	callq  10a0 <aligned_alloc@plt>
    10f7:	66 0f 6f 0d 91 af 00 	movdqa 0xaf91(%rip),%xmm1        # c090 <_IO_stdin_used+0x1090>
    10fe:	00 
    10ff:	66 0f 6f 25 99 af 00 	movdqa 0xaf99(%rip),%xmm4        # c0a0 <_IO_stdin_used+0x10a0>
    1106:	00 
    1107:	48 89 05 f2 cf 00 00 	mov    %rax,0xcff2(%rip)        # e100 <intTestArr>
    110e:	66 0f 6f 1d 9a af 00 	movdqa 0xaf9a(%rip),%xmm3        # c0b0 <_IO_stdin_used+0x10b0>
    1115:	00 
    1116:	48 8d 90 00 10 00 00 	lea    0x1000(%rax),%rdx
    111d:	0f 1f 00             	nopl   (%rax)
    1120:	66 0f 6f c1          	movdqa %xmm1,%xmm0
    1124:	48 83 c0 10          	add    $0x10,%rax
    1128:	66 0f d4 cc          	paddq  %xmm4,%xmm1
    112c:	66 0f 6f d0          	movdqa %xmm0,%xmm2
    1130:	66 0f d4 d3          	paddq  %xmm3,%xmm2
    1134:	0f c6 c2 88          	shufps $0x88,%xmm2,%xmm0
    1138:	0f 29 40 f0          	movaps %xmm0,-0x10(%rax)
    113c:	48 39 c2             	cmp    %rax,%rdx
    113f:	75 df                	jne    1120 <main+0x60>
    1141:	49 be 00 eb 08 bf 01 	movabs $0x1bf08eb00,%r14
    1148:	00 00 00 
    114b:	41 83 fc 02          	cmp    $0x2,%r12d
    114f:	0f 8f db 35 00 00    	jg     4730 <main+0x3670>
    1155:	4c 8d 2d 94 cf 00 00 	lea    0xcf94(%rip),%r13        # e0f0 <__cpu_model>
    115c:	41 f6 45 0d 02       	testb  $0x2,0xd(%r13)
    1161:	0f 85 a7 35 00 00    	jne    470e <main+0x364e>
    1167:	41 f6 45 0d 04       	testb  $0x4,0xd(%r13)
    116c:	0f 85 7a 35 00 00    	jne    46ec <main+0x362c>
    1172:	41 f6 45 0e 02       	testb  $0x2,0xe(%r13)
    1177:	0f 85 4d 35 00 00    	jne    46ca <main+0x360a>
    117d:	b8 07 00 00 00       	mov    $0x7,%eax
    1182:	31 c9                	xor    %ecx,%ecx
    1184:	0f a2                	cpuid  
    1186:	81 e3 00 00 01 00    	and    $0x10000,%ebx
    118c:	0f 85 af 1f 00 00    	jne    3141 <main+0x2081>
    1192:	41 83 fc 01          	cmp    $0x1,%r12d
    1196:	0f 84 9c 47 00 00    	je     5938 <main+0x4878>
    119c:	f2 0f 10 05 dc ae 00 	movsd  0xaedc(%rip),%xmm0        # c080 <_IO_stdin_used+0x1080>
    11a3:	00 
    11a4:	bf 01 00 00 00       	mov    $0x1,%edi
    11a9:	b8 01 00 00 00       	mov    $0x1,%eax
    11ae:	48 8d 35 c3 a5 00 00 	lea    0xa5c3(%rip),%rsi        # b778 <_IO_stdin_used+0x778>
    11b5:	e8 c6 fe ff ff       	callq  1080 <__printf_chk@plt>
    11ba:	f3 0f 10 35 c6 ae 00 	movss  0xaec6(%rip),%xmm6        # c088 <_IO_stdin_used+0x1088>
    11c1:	00 
    11c2:	f3 0f 11 74 24 0c    	movss  %xmm6,0xc(%rsp)
    11c8:	f3 0f 11 74 24 08    	movss  %xmm6,0x8(%rsp)
    11ce:	41 83 fc 01          	cmp    $0x1,%r12d
    11d2:	0f 8e 6e 17 00 00    	jle    2946 <main+0x1886>
    11d8:	4c 8b 6d 08          	mov    0x8(%rbp),%r13
    11dc:	ba 05 00 00 00       	mov    $0x5,%edx
    11e1:	48 8d 35 86 a5 00 00 	lea    0xa586(%rip),%rsi        # b76e <_IO_stdin_used+0x76e>
    11e8:	4c 89 ef             	mov    %r13,%rdi
    11eb:	e8 40 fe ff ff       	callq  1030 <strncmp@plt>
    11f0:	85 c0                	test   %eax,%eax
    11f2:	0f 85 a3 17 00 00    	jne    299b <main+0x18db>
    11f8:	48 8d 35 79 5b 00 00 	lea    0x5b79(%rip),%rsi        # 6d78 <noptest1b>
    11ff:	f3 0f 10 44 24 08    	movss  0x8(%rsp),%xmm0
    1205:	4c 89 f7             	mov    %r14,%rdi
    1208:	e8 33 98 00 00       	callq  aa40 <measureFunction>
    120d:	bf 01 00 00 00       	mov    $0x1,%edi
    1212:	b8 01 00 00 00       	mov    $0x1,%eax
    1217:	48 8d 35 2e a5 00 00 	lea    0xa52e(%rip),%rsi        # b74c <_IO_stdin_used+0x74c>
    121e:	f3 0f 5a c0          	cvtss2sd %xmm0,%xmm0
    1222:	e8 59 fe ff ff       	callq  1080 <__printf_chk@plt>
    1227:	4c 8b 6d 08          	mov    0x8(%rbp),%r13
    122b:	ba 05 00 00 00       	mov    $0x5,%edx
    1230:	48 8d 35 8e 9f 00 00 	lea    0x9f8e(%rip),%rsi        # b1c5 <_IO_stdin_used+0x1c5>
    1237:	4c 89 ef             	mov    %r13,%rdi
    123a:	e8 f1 fd ff ff       	callq  1030 <strncmp@plt>
    123f:	85 c0                	test   %eax,%eax
    1241:	0f 85 70 17 00 00    	jne    29b7 <main+0x18f7>
    1247:	48 8d 35 f1 5a 00 00 	lea    0x5af1(%rip),%rsi        # 6d3f <noptest>
    124e:	f3 0f 10 44 24 08    	movss  0x8(%rsp),%xmm0
    1254:	4c 89 f7             	mov    %r14,%rdi
    1257:	e8 e4 97 00 00       	callq  aa40 <measureFunction>
    125c:	bf 01 00 00 00       	mov    $0x1,%edi
    1261:	b8 01 00 00 00       	mov    $0x1,%eax
    1266:	48 8d 35 c4 a4 00 00 	lea    0xa4c4(%rip),%rsi        # b731 <_IO_stdin_used+0x731>
    126d:	f3 0f 5a c0          	cvtss2sd %xmm0,%xmm0
    1271:	e8 0a fe ff ff       	callq  1080 <__printf_chk@plt>
    1276:	4c 8b 6d 08          	mov    0x8(%rbp),%r13
    127a:	ba 03 00 00 00       	mov    $0x3,%edx
    127f:	48 8d 35 89 9f 00 00 	lea    0x9f89(%rip),%rsi        # b20f <_IO_stdin_used+0x20f>
    1286:	4c 89 ef             	mov    %r13,%rdi
    1289:	e8 a2 fd ff ff       	callq  1030 <strncmp@plt>
    128e:	85 c0                	test   %eax,%eax
    1290:	0f 85 3d 17 00 00    	jne    29d3 <main+0x1913>
    1296:	48 8d 35 01 5b 00 00 	lea    0x5b01(%rip),%rsi        # 6d9e <addtest>
    129d:	f3 0f 10 44 24 08    	movss  0x8(%rsp),%xmm0
    12a3:	4c 89 f7             	mov    %r14,%rdi
    12a6:	e8 95 97 00 00       	callq  aa40 <measureFunction>
    12ab:	bf 01 00 00 00       	mov    $0x1,%edi
    12b0:	b8 01 00 00 00       	mov    $0x1,%eax
    12b5:	48 8d 35 61 a4 00 00 	lea    0xa461(%rip),%rsi        # b71d <_IO_stdin_used+0x71d>
    12bc:	f3 0f 5a c0          	cvtss2sd %xmm0,%xmm0
    12c0:	e8 bb fd ff ff       	callq  1080 <__printf_chk@plt>
    12c5:	4c 8b 6d 08          	mov    0x8(%rbp),%r13
    12c9:	48 8d 35 fb 9e 00 00 	lea    0x9efb(%rip),%rsi        # b1cb <_IO_stdin_used+0x1cb>
    12d0:	4c 89 ef             	mov    %r13,%rdi
    12d3:	e8 88 fd ff ff       	callq  1060 <strcmp@plt>
    12d8:	85 c0                	test   %eax,%eax
    12da:	0f 85 0a 17 00 00    	jne    29ea <main+0x192a>
    12e0:	4c 8d 3d 43 5b 00 00 	lea    0x5b43(%rip),%r15        # 6e2a <addnoptest>
    12e7:	f3 0f 10 44 24 08    	movss  0x8(%rsp),%xmm0
    12ed:	4c 89 f7             	mov    %r14,%rdi
    12f0:	4c 89 fe             	mov    %r15,%rsi
    12f3:	e8 48 97 00 00       	callq  aa40 <measureFunction>
    12f8:	bf 01 00 00 00       	mov    $0x1,%edi
    12fd:	b8 01 00 00 00       	mov    $0x1,%eax
    1302:	48 8d 35 f7 a3 00 00 	lea    0xa3f7(%rip),%rsi        # b700 <_IO_stdin_used+0x700>
    1309:	f3 0f 5a c0          	cvtss2sd %xmm0,%xmm0
    130d:	e8 6e fd ff ff       	callq  1080 <__printf_chk@plt>
    1312:	4c 8b 6d 08          	mov    0x8(%rbp),%r13
    1316:	48 8d 35 b5 9e 00 00 	lea    0x9eb5(%rip),%rsi        # b1d2 <_IO_stdin_used+0x1d2>
    131d:	4c 89 ef             	mov    %r13,%rdi
    1320:	e8 3b fd ff ff       	callq  1060 <strcmp@plt>
    1325:	85 c0                	test   %eax,%eax
    1327:	0f 85 d4 16 00 00    	jne    2a01 <main+0x1941>
    132d:	f3 0f 10 44 24 08    	movss  0x8(%rsp),%xmm0
    1333:	4c 89 fe             	mov    %r15,%rsi
    1336:	4c 89 f7             	mov    %r14,%rdi
    1339:	e8 02 97 00 00       	callq  aa40 <measureFunction>
    133e:	bf 01 00 00 00       	mov    $0x1,%edi
    1343:	b8 01 00 00 00       	mov    $0x1,%eax
    1348:	48 8d 35 94 a3 00 00 	lea    0xa394(%rip),%rsi        # b6e3 <_IO_stdin_used+0x6e3>
    134f:	f3 0f 5a c0          	cvtss2sd %xmm0,%xmm0
    1353:	e8 28 fd ff ff       	callq  1080 <__printf_chk@plt>
    1358:	4c 8b 6d 08          	mov    0x8(%rbp),%r13
    135c:	ba 06 00 00 00       	mov    $0x6,%edx
    1361:	48 8d 35 73 9e 00 00 	lea    0x9e73(%rip),%rsi        # b1db <_IO_stdin_used+0x1db>
    1368:	4c 89 ef             	mov    %r13,%rdi
    136b:	e8 c0 fc ff ff       	callq  1030 <strncmp@plt>
    1370:	85 c0                	test   %eax,%eax
    1372:	0f 85 a5 16 00 00    	jne    2a1d <main+0x195d>
    1378:	48 8d 35 c8 91 00 00 	lea    0x91c8(%rip),%rsi        # a547 <depmovtest>
    137f:	f3 0f 10 44 24 08    	movss  0x8(%rsp),%xmm0
    1385:	4c 89 f7             	mov    %r14,%rdi
    1388:	e8 b3 96 00 00       	callq  aa40 <measureFunction>
    138d:	bf 01 00 00 00       	mov    $0x1,%edi
    1392:	b8 01 00 00 00       	mov    $0x1,%eax
    1397:	48 8d 35 27 a3 00 00 	lea    0xa327(%rip),%rsi        # b6c5 <_IO_stdin_used+0x6c5>
    139e:	f3 0f 5a c0          	cvtss2sd %xmm0,%xmm0
    13a2:	e8 d9 fc ff ff       	callq  1080 <__printf_chk@plt>
    13a7:	4c 8b 6d 08          	mov    0x8(%rbp),%r13
    13ab:	ba 08 00 00 00       	mov    $0x8,%edx
    13b0:	48 8d 35 22 9e 00 00 	lea    0x9e22(%rip),%rsi        # b1d9 <_IO_stdin_used+0x1d9>
    13b7:	4c 89 ef             	mov    %r13,%rdi
    13ba:	e8 71 fc ff ff       	callq  1030 <strncmp@plt>
    13bf:	85 c0                	test   %eax,%eax
    13c1:	0f 85 72 16 00 00    	jne    2a39 <main+0x1979>
    13c7:	48 8d 35 ee 91 00 00 	lea    0x91ee(%rip),%rsi        # a5bc <indepmovtest>
    13ce:	f3 0f 10 44 24 08    	movss  0x8(%rsp),%xmm0
    13d4:	4c 89 f7             	mov    %r14,%rdi
    13d7:	e8 64 96 00 00       	callq  aa40 <measureFunction>
    13dc:	bf 01 00 00 00       	mov    $0x1,%edi
    13e1:	b8 01 00 00 00       	mov    $0x1,%eax
    13e6:	48 8d 35 3b ac 00 00 	lea    0xac3b(%rip),%rsi        # c028 <_IO_stdin_used+0x1028>
    13ed:	f3 0f 5a c0          	cvtss2sd %xmm0,%xmm0
    13f1:	e8 8a fc ff ff       	callq  1080 <__printf_chk@plt>
    13f6:	4c 8b 6d 08          	mov    0x8(%rbp),%r13
    13fa:	ba 07 00 00 00       	mov    $0x7,%edx
    13ff:	48 8d 35 dc 9d 00 00 	lea    0x9ddc(%rip),%rsi        # b1e2 <_IO_stdin_used+0x1e2>
    1406:	4c 89 ef             	mov    %r13,%rdi
    1409:	e8 22 fc ff ff       	callq  1030 <strncmp@plt>
    140e:	85 c0                	test   %eax,%eax
    1410:	0f 85 3f 16 00 00    	jne    2a55 <main+0x1995>
    1416:	48 8d 35 e1 92 00 00 	lea    0x92e1(%rip),%rsi        # a6fe <xorzerotest>
    141d:	f3 0f 10 44 24 08    	movss  0x8(%rsp),%xmm0
    1423:	4c 89 f7             	mov    %r14,%rdi
    1426:	e8 15 96 00 00       	callq  aa40 <measureFunction>
    142b:	bf 01 00 00 00       	mov    $0x1,%edi
    1430:	b8 01 00 00 00       	mov    $0x1,%eax
    1435:	48 8d 35 71 a2 00 00 	lea    0xa271(%rip),%rsi        # b6ad <_IO_stdin_used+0x6ad>
    143c:	f3 0f 5a c0          	cvtss2sd %xmm0,%xmm0
    1440:	e8 3b fc ff ff       	callq  1080 <__printf_chk@plt>
    1445:	4c 8b 6d 08          	mov    0x8(%rbp),%r13
    1449:	ba 07 00 00 00       	mov    $0x7,%edx
    144e:	48 8d 35 95 9d 00 00 	lea    0x9d95(%rip),%rsi        # b1ea <_IO_stdin_used+0x1ea>
    1455:	4c 89 ef             	mov    %r13,%rdi
    1458:	e8 d3 fb ff ff       	callq  1030 <strncmp@plt>
    145d:	85 c0                	test   %eax,%eax
    145f:	0f 85 0c 16 00 00    	jne    2a71 <main+0x19b1>
    1465:	48 8d 35 c7 91 00 00 	lea    0x91c7(%rip),%rsi        # a633 <movzerotest>
    146c:	f3 0f 10 44 24 08    	movss  0x8(%rsp),%xmm0
    1472:	4c 89 f7             	mov    %r14,%rdi
    1475:	e8 c6 95 00 00       	callq  aa40 <measureFunction>
    147a:	bf 01 00 00 00       	mov    $0x1,%edi
    147f:	b8 01 00 00 00       	mov    $0x1,%eax
    1484:	48 8d 35 0a a2 00 00 	lea    0xa20a(%rip),%rsi        # b695 <_IO_stdin_used+0x695>
    148b:	f3 0f 5a c0          	cvtss2sd %xmm0,%xmm0
    148f:	e8 ec fb ff ff       	callq  1080 <__printf_chk@plt>
    1494:	4c 8b 6d 08          	mov    0x8(%rbp),%r13
    1498:	ba 07 00 00 00       	mov    $0x7,%edx
    149d:	48 8d 35 4e 9d 00 00 	lea    0x9d4e(%rip),%rsi        # b1f2 <_IO_stdin_used+0x1f2>
    14a4:	4c 89 ef             	mov    %r13,%rdi
    14a7:	e8 84 fb ff ff       	callq  1030 <strncmp@plt>
    14ac:	85 c0                	test   %eax,%eax
    14ae:	0f 85 d9 15 00 00    	jne    2a8d <main+0x19cd>
    14b4:	48 8d 35 ba 92 00 00 	lea    0x92ba(%rip),%rsi        # a775 <subzerotest>
    14bb:	f3 0f 10 44 24 08    	movss  0x8(%rsp),%xmm0
    14c1:	4c 89 f7             	mov    %r14,%rdi
    14c4:	e8 77 95 00 00       	callq  aa40 <measureFunction>
    14c9:	bf 01 00 00 00       	mov    $0x1,%edi
    14ce:	b8 01 00 00 00       	mov    $0x1,%eax
    14d3:	48 8d 35 a3 a1 00 00 	lea    0xa1a3(%rip),%rsi        # b67d <_IO_stdin_used+0x67d>
    14da:	f3 0f 5a c0          	cvtss2sd %xmm0,%xmm0
    14de:	e8 9d fb ff ff       	callq  1080 <__printf_chk@plt>
    14e3:	4c 8b 6d 08          	mov    0x8(%rbp),%r13
    14e7:	ba 06 00 00 00       	mov    $0x6,%edx
    14ec:	48 8d 35 07 9d 00 00 	lea    0x9d07(%rip),%rsi        # b1fa <_IO_stdin_used+0x1fa>
    14f3:	4c 89 ef             	mov    %r13,%rdi
    14f6:	e8 35 fb ff ff       	callq  1030 <strncmp@plt>
    14fb:	85 c0                	test   %eax,%eax
    14fd:	0f 85 a6 15 00 00    	jne    2aa9 <main+0x19e9>
    1503:	48 8d 35 6d 93 00 00 	lea    0x936d(%rip),%rsi        # a877 <depinctest>
    150a:	f3 0f 10 44 24 08    	movss  0x8(%rsp),%xmm0
    1510:	4c 89 f7             	mov    %r14,%rdi
    1513:	e8 28 95 00 00       	callq  aa40 <measureFunction>
    1518:	bf 01 00 00 00       	mov    $0x1,%edi
    151d:	b8 01 00 00 00       	mov    $0x1,%eax
    1522:	48 8d 35 3d a1 00 00 	lea    0xa13d(%rip),%rsi        # b666 <_IO_stdin_used+0x666>
    1529:	f3 0f 5a c0          	cvtss2sd %xmm0,%xmm0
    152d:	e8 4e fb ff ff       	callq  1080 <__printf_chk@plt>
    1532:	4c 8b 6d 08          	mov    0x8(%rbp),%r13
    1536:	ba 06 00 00 00       	mov    $0x6,%edx
    153b:	48 8d 35 bf 9c 00 00 	lea    0x9cbf(%rip),%rsi        # b201 <_IO_stdin_used+0x201>
    1542:	4c 89 ef             	mov    %r13,%rdi
    1545:	e8 e6 fa ff ff       	callq  1030 <strncmp@plt>
    154a:	85 c0                	test   %eax,%eax
    154c:	0f 85 73 15 00 00    	jne    2ac5 <main+0x1a05>
    1552:	48 8d 35 95 93 00 00 	lea    0x9395(%rip),%rsi        # a8ee <depdectest>
    1559:	f3 0f 10 44 24 08    	movss  0x8(%rsp),%xmm0
    155f:	4c 89 f7             	mov    %r14,%rdi
    1562:	e8 d9 94 00 00       	callq  aa40 <measureFunction>
    1567:	bf 01 00 00 00       	mov    $0x1,%edi
    156c:	b8 01 00 00 00       	mov    $0x1,%eax
    1571:	48 8d 35 d7 a0 00 00 	lea    0xa0d7(%rip),%rsi        # b64f <_IO_stdin_used+0x64f>
    1578:	f3 0f 5a c0          	cvtss2sd %xmm0,%xmm0
    157c:	e8 ff fa ff ff       	callq  1080 <__printf_chk@plt>
    1581:	4c 8b 6d 08          	mov    0x8(%rbp),%r13
    1585:	ba 06 00 00 00       	mov    $0x6,%edx
    158a:	48 8d 35 70 9c 00 00 	lea    0x9c70(%rip),%rsi        # b201 <_IO_stdin_used+0x201>
    1591:	4c 89 ef             	mov    %r13,%rdi
    1594:	e8 97 fa ff ff       	callq  1030 <strncmp@plt>
    1599:	85 c0                	test   %eax,%eax
    159b:	75 33                	jne    15d0 <main+0x510>
    159d:	48 8d 35 48 92 00 00 	lea    0x9248(%rip),%rsi        # a7ec <depaddimmtest>
    15a4:	f3 0f 10 44 24 08    	movss  0x8(%rsp),%xmm0
    15aa:	4c 89 f7             	mov    %r14,%rdi
    15ad:	e8 8e 94 00 00       	callq  aa40 <measureFunction>
    15b2:	bf 01 00 00 00       	mov    $0x1,%edi
    15b7:	b8 01 00 00 00       	mov    $0x1,%eax
    15bc:	48 8d 35 3d aa 00 00 	lea    0xaa3d(%rip),%rsi        # c000 <_IO_stdin_used+0x1000>
    15c3:	f3 0f 5a c0          	cvtss2sd %xmm0,%xmm0
    15c7:	e8 b4 fa ff ff       	callq  1080 <__printf_chk@plt>
    15cc:	4c 8b 6d 08          	mov    0x8(%rbp),%r13
    15d0:	ba 06 00 00 00       	mov    $0x6,%edx
    15d5:	48 8d 35 8b a1 00 00 	lea    0xa18b(%rip),%rsi        # b767 <_IO_stdin_used+0x767>
    15dc:	4c 89 ef             	mov    %r13,%rdi
    15df:	e8 4c fa ff ff       	callq  1030 <strncmp@plt>
    15e4:	85 c0                	test   %eax,%eax
    15e6:	0f 85 f5 14 00 00    	jne    2ae1 <main+0x1a21>
    15ec:	48 8d 35 b3 56 00 00 	lea    0x56b3(%rip),%rsi        # 6ca6 <clkmovtest>
    15f3:	f3 0f 10 44 24 08    	movss  0x8(%rsp),%xmm0
    15f9:	4c 89 f7             	mov    %r14,%rdi
    15fc:	e8 3f 94 00 00       	callq  aa40 <measureFunction>
    1601:	bf 01 00 00 00       	mov    $0x1,%edi
    1606:	b8 01 00 00 00       	mov    $0x1,%eax
    160b:	48 8d 35 c6 a9 00 00 	lea    0xa9c6(%rip),%rsi        # bfd8 <_IO_stdin_used+0xfd8>
    1612:	f3 0f 5a c0          	cvtss2sd %xmm0,%xmm0
    1616:	e8 65 fa ff ff       	callq  1080 <__printf_chk@plt>
    161b:	4c 8b 6d 08          	mov    0x8(%rbp),%r13
    161f:	ba 0a 00 00 00       	mov    $0xa,%edx
    1624:	48 8d 35 dd 9b 00 00 	lea    0x9bdd(%rip),%rsi        # b208 <_IO_stdin_used+0x208>
    162b:	4c 89 ef             	mov    %r13,%rdi
    162e:	e8 fd f9 ff ff       	callq  1030 <strncmp@plt>
    1633:	85 c0                	test   %eax,%eax
    1635:	0f 85 c2 14 00 00    	jne    2afd <main+0x1a3d>
    163b:	48 8d 35 62 61 00 00 	lea    0x6162(%rip),%rsi        # 77a4 <addmultest>
    1642:	f3 0f 10 44 24 08    	movss  0x8(%rsp),%xmm0
    1648:	4c 89 f7             	mov    %r14,%rdi
    164b:	e8 f0 93 00 00       	callq  aa40 <measureFunction>
    1650:	bf 01 00 00 00       	mov    $0x1,%edi
    1655:	b8 01 00 00 00       	mov    $0x1,%eax
    165a:	48 8d 35 d1 9f 00 00 	lea    0x9fd1(%rip),%rsi        # b632 <_IO_stdin_used+0x632>
    1661:	f3 0f 5a c0          	cvtss2sd %xmm0,%xmm0
    1665:	e8 16 fa ff ff       	callq  1080 <__printf_chk@plt>
    166a:	4c 8b 6d 08          	mov    0x8(%rbp),%r13
    166e:	ba 06 00 00 00       	mov    $0x6,%edx
    1673:	48 8d 35 99 9b 00 00 	lea    0x9b99(%rip),%rsi        # b213 <_IO_stdin_used+0x213>
    167a:	4c 89 ef             	mov    %r13,%rdi
    167d:	e8 ae f9 ff ff       	callq  1030 <strncmp@plt>
    1682:	85 c0                	test   %eax,%eax
    1684:	0f 85 8f 14 00 00    	jne    2b19 <main+0x1a59>
    168a:	48 8d 35 56 60 00 00 	lea    0x6056(%rip),%rsi        # 76e7 <jmpmultest>
    1691:	f3 0f 10 44 24 08    	movss  0x8(%rsp),%xmm0
    1697:	4c 89 f7             	mov    %r14,%rdi
    169a:	e8 a1 93 00 00       	callq  aa40 <measureFunction>
    169f:	bf 01 00 00 00       	mov    $0x1,%edi
    16a4:	b8 01 00 00 00       	mov    $0x1,%eax
    16a9:	48 8d 35 67 9f 00 00 	lea    0x9f67(%rip),%rsi        # b617 <_IO_stdin_used+0x617>
    16b0:	f3 0f 5a c0          	cvtss2sd %xmm0,%xmm0
    16b4:	e8 c7 f9 ff ff       	callq  1080 <__printf_chk@plt>
    16b9:	4c 8b 6d 08          	mov    0x8(%rbp),%r13
    16bd:	ba 03 00 00 00       	mov    $0x3,%edx
    16c2:	48 8d 35 53 9b 00 00 	lea    0x9b53(%rip),%rsi        # b21c <_IO_stdin_used+0x21c>
    16c9:	4c 89 ef             	mov    %r13,%rdi
    16cc:	e8 5f f9 ff ff       	callq  1030 <strncmp@plt>
    16d1:	85 c0                	test   %eax,%eax
    16d3:	0f 85 5c 14 00 00    	jne    2b35 <main+0x1a75>
    16d9:	48 8d 35 11 5e 00 00 	lea    0x5e11(%rip),%rsi        # 74f1 <jmptest>
    16e0:	f3 0f 10 44 24 08    	movss  0x8(%rsp),%xmm0
    16e6:	4c 89 f7             	mov    %r14,%rdi
    16e9:	e8 52 93 00 00       	callq  aa40 <measureFunction>
    16ee:	bf 01 00 00 00       	mov    $0x1,%edi
    16f3:	b8 01 00 00 00       	mov    $0x1,%eax
    16f8:	48 8d 35 ff 9e 00 00 	lea    0x9eff(%rip),%rsi        # b5fe <_IO_stdin_used+0x5fe>
    16ff:	f3 0f 5a c0          	cvtss2sd %xmm0,%xmm0
    1703:	e8 78 f9 ff ff       	callq  1080 <__printf_chk@plt>
    1708:	4c 8b 6d 08          	mov    0x8(%rbp),%r13
    170c:	ba 05 00 00 00       	mov    $0x5,%edx
    1711:	48 8d 35 02 9b 00 00 	lea    0x9b02(%rip),%rsi        # b21a <_IO_stdin_used+0x21a>
    1718:	4c 89 ef             	mov    %r13,%rdi
    171b:	e8 10 f9 ff ff       	callq  1030 <strncmp@plt>
    1720:	85 c0                	test   %eax,%eax
    1722:	0f 85 29 14 00 00    	jne    2b51 <main+0x1a91>
    1728:	48 8d 35 9a 5e 00 00 	lea    0x5e9a(%rip),%rsi        # 75c9 <ntjmptest>
    172f:	f3 0f 10 44 24 08    	movss  0x8(%rsp),%xmm0
    1735:	4c 89 f7             	mov    %r14,%rdi
    1738:	e8 03 93 00 00       	callq  aa40 <measureFunction>
    173d:	bf 01 00 00 00       	mov    $0x1,%edi
    1742:	b8 01 00 00 00       	mov    $0x1,%eax
    1747:	48 8d 35 9a 9e 00 00 	lea    0x9e9a(%rip),%rsi        # b5e8 <_IO_stdin_used+0x5e8>
    174e:	f3 0f 5a c0          	cvtss2sd %xmm0,%xmm0
    1752:	e8 29 f9 ff ff       	callq  1080 <__printf_chk@plt>
    1757:	4c 8b 6d 08          	mov    0x8(%rbp),%r13
    175b:	ba 04 00 00 00       	mov    $0x4,%edx
    1760:	48 8d 35 b9 9a 00 00 	lea    0x9ab9(%rip),%rsi        # b220 <_IO_stdin_used+0x220>
    1767:	4c 89 ef             	mov    %r13,%rdi
    176a:	e8 c1 f8 ff ff       	callq  1030 <strncmp@plt>
    176f:	85 c0                	test   %eax,%eax
    1771:	0f 85 f6 13 00 00    	jne    2b6d <main+0x1aad>
    1777:	48 8d 35 b2 8b 00 00 	lea    0x8bb2(%rip),%rsi        # a330 <pdeptest>
    177e:	f3 0f 10 44 24 08    	movss  0x8(%rsp),%xmm0
    1784:	4c 89 f7             	mov    %r14,%rdi
    1787:	e8 b4 92 00 00       	callq  aa40 <measureFunction>
    178c:	bf 01 00 00 00       	mov    $0x1,%edi
    1791:	b8 01 00 00 00       	mov    $0x1,%eax
    1796:	48 8d 35 37 9e 00 00 	lea    0x9e37(%rip),%rsi        # b5d4 <_IO_stdin_used+0x5d4>
    179d:	f3 0f 5a c0          	cvtss2sd %xmm0,%xmm0
    17a1:	e8 da f8 ff ff       	callq  1080 <__printf_chk@plt>
    17a6:	4c 8b 6d 08          	mov    0x8(%rbp),%r13
    17aa:	ba 04 00 00 00       	mov    $0x4,%edx
    17af:	48 8d 35 6f 9a 00 00 	lea    0x9a6f(%rip),%rsi        # b225 <_IO_stdin_used+0x225>
    17b6:	4c 89 ef             	mov    %r13,%rdi
    17b9:	e8 72 f8 ff ff       	callq  1030 <strncmp@plt>
    17be:	85 c0                	test   %eax,%eax
    17c0:	0f 85 c3 13 00 00    	jne    2b89 <main+0x1ac9>
    17c6:	48 8d 35 c6 8c 00 00 	lea    0x8cc6(%rip),%rsi        # a493 <pexttest>
    17cd:	f3 0f 10 44 24 08    	movss  0x8(%rsp),%xmm0
    17d3:	4c 89 f7             	mov    %r14,%rdi
    17d6:	e8 65 92 00 00       	callq  aa40 <measureFunction>
    17db:	bf 01 00 00 00       	mov    $0x1,%edi
    17e0:	b8 01 00 00 00       	mov    $0x1,%eax
    17e5:	48 8d 35 d4 9d 00 00 	lea    0x9dd4(%rip),%rsi        # b5c0 <_IO_stdin_used+0x5c0>
    17ec:	f3 0f 5a c0          	cvtss2sd %xmm0,%xmm0
    17f0:	e8 8b f8 ff ff       	callq  1080 <__printf_chk@plt>
    17f5:	4c 8b 6d 08          	mov    0x8(%rbp),%r13
    17f9:	ba 07 00 00 00       	mov    $0x7,%edx
    17fe:	48 8d 35 25 9a 00 00 	lea    0x9a25(%rip),%rsi        # b22a <_IO_stdin_used+0x22a>
    1805:	4c 89 ef             	mov    %r13,%rdi
    1808:	e8 23 f8 ff ff       	callq  1030 <strncmp@plt>
    180d:	85 c0                	test   %eax,%eax
    180f:	0f 85 90 13 00 00    	jne    2ba5 <main+0x1ae5>
    1815:	48 8d 35 c8 8b 00 00 	lea    0x8bc8(%rip),%rsi        # a3e4 <pdepmultest>
    181c:	f3 0f 10 44 24 08    	movss  0x8(%rsp),%xmm0
    1822:	4c 89 f7             	mov    %r14,%rdi
    1825:	e8 16 92 00 00       	callq  aa40 <measureFunction>
    182a:	bf 01 00 00 00       	mov    $0x1,%edi
    182f:	b8 01 00 00 00       	mov    $0x1,%eax
    1834:	48 8d 35 69 9d 00 00 	lea    0x9d69(%rip),%rsi        # b5a4 <_IO_stdin_used+0x5a4>
    183b:	f3 0f 5a c0          	cvtss2sd %xmm0,%xmm0
    183f:	e8 3c f8 ff ff       	callq  1080 <__printf_chk@plt>
    1844:	4c 8b 6d 08          	mov    0x8(%rbp),%r13
    1848:	ba 03 00 00 00       	mov    $0x3,%edx
    184d:	48 8d 35 e8 99 00 00 	lea    0x99e8(%rip),%rsi        # b23c <_IO_stdin_used+0x23c>
    1854:	4c 89 ef             	mov    %r13,%rdi
    1857:	e8 d4 f7 ff ff       	callq  1030 <strncmp@plt>
    185c:	85 c0                	test   %eax,%eax
    185e:	0f 85 5d 13 00 00    	jne    2bc1 <main+0x1b01>
    1864:	48 8d 35 5b 57 00 00 	lea    0x575b(%rip),%rsi        # 6fc6 <shltest>
    186b:	f3 0f 10 44 24 08    	movss  0x8(%rsp),%xmm0
    1871:	4c 89 f7             	mov    %r14,%rdi
    1874:	e8 c7 91 00 00       	callq  aa40 <measureFunction>
    1879:	bf 01 00 00 00       	mov    $0x1,%edi
    187e:	b8 01 00 00 00       	mov    $0x1,%eax
    1883:	48 8d 35 03 9d 00 00 	lea    0x9d03(%rip),%rsi        # b58d <_IO_stdin_used+0x58d>
    188a:	f3 0f 5a c0          	cvtss2sd %xmm0,%xmm0
    188e:	e8 ed f7 ff ff       	callq  1080 <__printf_chk@plt>
    1893:	4c 8b 6d 08          	mov    0x8(%rbp),%r13
    1897:	ba 03 00 00 00       	mov    $0x3,%edx
    189c:	48 8d 35 8f 99 00 00 	lea    0x998f(%rip),%rsi        # b232 <_IO_stdin_used+0x232>
    18a3:	4c 89 ef             	mov    %r13,%rdi
    18a6:	e8 85 f7 ff ff       	callq  1030 <strncmp@plt>
    18ab:	85 c0                	test   %eax,%eax
    18ad:	0f 85 2a 13 00 00    	jne    2bdd <main+0x1b1d>
    18b3:	48 8d 35 80 56 00 00 	lea    0x5680(%rip),%rsi        # 6f3a <rortest>
    18ba:	f3 0f 10 44 24 08    	movss  0x8(%rsp),%xmm0
    18c0:	4c 89 f7             	mov    %r14,%rdi
    18c3:	e8 78 91 00 00       	callq  aa40 <measureFunction>
    18c8:	bf 01 00 00 00       	mov    $0x1,%edi
    18cd:	b8 01 00 00 00       	mov    $0x1,%eax
    18d2:	48 8d 35 9d 9c 00 00 	lea    0x9c9d(%rip),%rsi        # b576 <_IO_stdin_used+0x576>
    18d9:	f3 0f 5a c0          	cvtss2sd %xmm0,%xmm0
    18dd:	e8 9e f7 ff ff       	callq  1080 <__printf_chk@plt>
    18e2:	4c 8b 6d 08          	mov    0x8(%rbp),%r13
    18e6:	ba 09 00 00 00       	mov    $0x9,%edx
    18eb:	48 8d 35 44 99 00 00 	lea    0x9944(%rip),%rsi        # b236 <_IO_stdin_used+0x236>
    18f2:	4c 89 ef             	mov    %r13,%rdi
    18f5:	e8 36 f7 ff ff       	callq  1030 <strncmp@plt>
    18fa:	85 c0                	test   %eax,%eax
    18fc:	0f 85 f7 12 00 00    	jne    2bf9 <main+0x1b39>
    1902:	48 8d 35 49 57 00 00 	lea    0x5749(%rip),%rsi        # 7052 <mixrorshltest>
    1909:	f3 0f 10 44 24 08    	movss  0x8(%rsp),%xmm0
    190f:	4c 89 f7             	mov    %r14,%rdi
    1912:	e8 29 91 00 00       	callq  aa40 <measureFunction>
    1917:	bf 01 00 00 00       	mov    $0x1,%edi
    191c:	b8 01 00 00 00       	mov    $0x1,%eax
    1921:	48 8d 35 90 a6 00 00 	lea    0xa690(%rip),%rsi        # bfb8 <_IO_stdin_used+0xfb8>
    1928:	f3 0f 5a c0          	cvtss2sd %xmm0,%xmm0
    192c:	e8 4f f7 ff ff       	callq  1080 <__printf_chk@plt>
    1931:	4c 8b 6d 08          	mov    0x8(%rbp),%r13
    1935:	ba 03 00 00 00       	mov    $0x3,%edx
    193a:	48 8d 35 ff 98 00 00 	lea    0x98ff(%rip),%rsi        # b240 <_IO_stdin_used+0x240>
    1941:	4c 89 ef             	mov    %r13,%rdi
    1944:	e8 e7 f6 ff ff       	callq  1030 <strncmp@plt>
    1949:	85 c0                	test   %eax,%eax
    194b:	0f 85 c4 12 00 00    	jne    2c15 <main+0x1b55>
    1951:	48 8d 35 86 57 00 00 	lea    0x5786(%rip),%rsi        # 70de <mixrormultest>
    1958:	f3 0f 10 44 24 08    	movss  0x8(%rsp),%xmm0
    195e:	4c 89 f7             	mov    %r14,%rdi
    1961:	e8 da 90 00 00       	callq  aa40 <measureFunction>
    1966:	bf 01 00 00 00       	mov    $0x1,%edi
    196b:	b8 01 00 00 00       	mov    $0x1,%eax
    1970:	48 8d 35 e4 9b 00 00 	lea    0x9be4(%rip),%rsi        # b55b <_IO_stdin_used+0x55b>
    1977:	f3 0f 5a c0          	cvtss2sd %xmm0,%xmm0
    197b:	e8 00 f7 ff ff       	callq  1080 <__printf_chk@plt>
    1980:	4c 8b 6d 08          	mov    0x8(%rbp),%r13
    1984:	ba 03 00 00 00       	mov    $0x3,%edx
    1989:	48 8d 35 c0 98 00 00 	lea    0x98c0(%rip),%rsi        # b250 <_IO_stdin_used+0x250>
    1990:	4c 89 ef             	mov    %r13,%rdi
    1993:	e8 98 f6 ff ff       	callq  1030 <strncmp@plt>
    1998:	85 c0                	test   %eax,%eax
    199a:	0f 85 91 12 00 00    	jne    2c31 <main+0x1b71>
    19a0:	48 8d 35 89 58 00 00 	lea    0x5889(%rip),%rsi        # 7230 <btstest>
    19a7:	f3 0f 10 44 24 08    	movss  0x8(%rsp),%xmm0
    19ad:	4c 89 f7             	mov    %r14,%rdi
    19b0:	e8 8b 90 00 00       	callq  aa40 <measureFunction>
    19b5:	bf 01 00 00 00       	mov    $0x1,%edi
    19ba:	b8 01 00 00 00       	mov    $0x1,%eax
    19bf:	48 8d 35 82 9b 00 00 	lea    0x9b82(%rip),%rsi        # b548 <_IO_stdin_used+0x548>
    19c6:	f3 0f 5a c0          	cvtss2sd %xmm0,%xmm0
    19ca:	e8 b1 f6 ff ff       	callq  1080 <__printf_chk@plt>
    19cf:	4c 8b 6d 08          	mov    0x8(%rbp),%r13
    19d3:	ba 09 00 00 00       	mov    $0x9,%edx
    19d8:	48 8d 35 6b 98 00 00 	lea    0x986b(%rip),%rsi        # b24a <_IO_stdin_used+0x24a>
    19df:	4c 89 ef             	mov    %r13,%rdi
    19e2:	e8 49 f6 ff ff       	callq  1030 <strncmp@plt>
    19e7:	85 c0                	test   %eax,%eax
    19e9:	0f 85 5e 12 00 00    	jne    2c4d <main+0x1b8d>
    19ef:	48 8d 35 33 5a 00 00 	lea    0x5a33(%rip),%rsi        # 7429 <btsmultest>
    19f6:	f3 0f 10 44 24 08    	movss  0x8(%rsp),%xmm0
    19fc:	4c 89 f7             	mov    %r14,%rdi
    19ff:	e8 3c 90 00 00       	callq  aa40 <measureFunction>
    1a04:	bf 01 00 00 00       	mov    $0x1,%edi
    1a09:	b8 01 00 00 00       	mov    $0x1,%eax
    1a0e:	48 8d 35 18 9b 00 00 	lea    0x9b18(%rip),%rsi        # b52d <_IO_stdin_used+0x52d>
    1a15:	f3 0f 5a c0          	cvtss2sd %xmm0,%xmm0
    1a19:	e8 62 f6 ff ff       	callq  1080 <__printf_chk@plt>
    1a1e:	4c 8b 6d 08          	mov    0x8(%rbp),%r13
    1a22:	ba 09 00 00 00       	mov    $0x9,%edx
    1a27:	48 8d 35 26 98 00 00 	lea    0x9826(%rip),%rsi        # b254 <_IO_stdin_used+0x254>
    1a2e:	4c 89 ef             	mov    %r13,%rdi
    1a31:	e8 fa f5 ff ff       	callq  1030 <strncmp@plt>
    1a36:	85 c0                	test   %eax,%eax
    1a38:	0f 85 2b 12 00 00    	jne    2c69 <main+0x1ba9>
    1a3e:	48 8d 35 4e 57 00 00 	lea    0x574e(%rip),%rsi        # 7193 <rorbtstest>
    1a45:	f3 0f 10 44 24 08    	movss  0x8(%rsp),%xmm0
    1a4b:	4c 89 f7             	mov    %r14,%rdi
    1a4e:	e8 ed 8f 00 00       	callq  aa40 <measureFunction>
    1a53:	bf 01 00 00 00       	mov    $0x1,%edi
    1a58:	b8 01 00 00 00       	mov    $0x1,%eax
    1a5d:	48 8d 35 ae 9a 00 00 	lea    0x9aae(%rip),%rsi        # b512 <_IO_stdin_used+0x512>
    1a64:	f3 0f 5a c0          	cvtss2sd %xmm0,%xmm0
    1a68:	e8 13 f6 ff ff       	callq  1080 <__printf_chk@plt>
    1a6d:	4c 8b 6d 08          	mov    0x8(%rbp),%r13
    1a71:	ba 03 00 00 00       	mov    $0x3,%edx
    1a76:	48 8d 35 e7 97 00 00 	lea    0x97e7(%rip),%rsi        # b264 <_IO_stdin_used+0x264>
    1a7d:	4c 89 ef             	mov    %r13,%rdi
    1a80:	e8 ab f5 ff ff       	callq  1030 <strncmp@plt>
    1a85:	85 c0                	test   %eax,%eax
    1a87:	0f 85 f8 11 00 00    	jne    2c85 <main+0x1bc5>
    1a8d:	48 8d 35 3f 58 00 00 	lea    0x583f(%rip),%rsi        # 72d3 <leatest>
    1a94:	f3 0f 10 44 24 08    	movss  0x8(%rsp),%xmm0
    1a9a:	4c 89 f7             	mov    %r14,%rdi
    1a9d:	e8 9e 8f 00 00       	callq  aa40 <measureFunction>
    1aa2:	bf 01 00 00 00       	mov    $0x1,%edi
    1aa7:	b8 01 00 00 00       	mov    $0x1,%eax
    1aac:	48 8d 35 46 9a 00 00 	lea    0x9a46(%rip),%rsi        # b4f9 <_IO_stdin_used+0x4f9>
    1ab3:	f3 0f 5a c0          	cvtss2sd %xmm0,%xmm0
    1ab7:	e8 c4 f5 ff ff       	callq  1080 <__printf_chk@plt>
    1abc:	4c 8b 6d 08          	mov    0x8(%rbp),%r13
    1ac0:	ba 09 00 00 00       	mov    $0x9,%edx
    1ac5:	48 8d 35 92 97 00 00 	lea    0x9792(%rip),%rsi        # b25e <_IO_stdin_used+0x25e>
    1acc:	4c 89 ef             	mov    %r13,%rdi
    1acf:	e8 5c f5 ff ff       	callq  1030 <strncmp@plt>
    1ad4:	85 c0                	test   %eax,%eax
    1ad6:	0f 85 c5 11 00 00    	jne    2ca1 <main+0x1be1>
    1adc:	48 8d 35 93 58 00 00 	lea    0x5893(%rip),%rsi        # 7376 <leamultest>
    1ae3:	f3 0f 10 44 24 08    	movss  0x8(%rsp),%xmm0
    1ae9:	4c 89 f7             	mov    %r14,%rdi
    1aec:	e8 4f 8f 00 00       	callq  aa40 <measureFunction>
    1af1:	bf 01 00 00 00       	mov    $0x1,%edi
    1af6:	b8 01 00 00 00       	mov    $0x1,%eax
    1afb:	48 8d 35 8e a4 00 00 	lea    0xa48e(%rip),%rsi        # bf90 <_IO_stdin_used+0xf90>
    1b02:	f3 0f 5a c0          	cvtss2sd %xmm0,%xmm0
    1b06:	e8 75 f5 ff ff       	callq  1080 <__printf_chk@plt>
    1b0b:	4c 8b 6d 08          	mov    0x8(%rbp),%r13
    1b0f:	ba 09 00 00 00       	mov    $0x9,%edx
    1b14:	48 8d 35 5f 97 00 00 	lea    0x975f(%rip),%rsi        # b27a <_IO_stdin_used+0x27a>
    1b1b:	4c 89 ef             	mov    %r13,%rdi
    1b1e:	e8 0d f5 ff ff       	callq  1030 <strncmp@plt>
    1b23:	85 c0                	test   %eax,%eax
    1b25:	0f 85 92 11 00 00    	jne    2cbd <main+0x1bfd>
    1b2b:	48 8d 35 59 5d 00 00 	lea    0x5d59(%rip),%rsi        # 788b <add256int>
    1b32:	f3 0f 10 44 24 08    	movss  0x8(%rsp),%xmm0
    1b38:	4c 89 f7             	mov    %r14,%rdi
    1b3b:	e8 00 8f 00 00       	callq  aa40 <measureFunction>
    1b40:	bf 01 00 00 00       	mov    $0x1,%edi
    1b45:	b8 01 00 00 00       	mov    $0x1,%eax
    1b4a:	48 8d 35 17 a4 00 00 	lea    0xa417(%rip),%rsi        # bf68 <_IO_stdin_used+0xf68>
    1b51:	f3 0f 5a c0          	cvtss2sd %xmm0,%xmm0
    1b55:	e8 26 f5 ff ff       	callq  1080 <__printf_chk@plt>
    1b5a:	4c 8b 6d 08          	mov    0x8(%rbp),%r13
    1b5e:	ba 0c 00 00 00       	mov    $0xc,%edx
    1b63:	48 8d 35 fe 96 00 00 	lea    0x96fe(%rip),%rsi        # b268 <_IO_stdin_used+0x268>
    1b6a:	4c 89 ef             	mov    %r13,%rdi
    1b6d:	e8 be f4 ff ff       	callq  1030 <strncmp@plt>
    1b72:	85 c0                	test   %eax,%eax
    1b74:	0f 85 5f 11 00 00    	jne    2cd9 <main+0x1c19>
    1b7a:	48 8d 35 c3 61 00 00 	lea    0x61c3(%rip),%rsi        # 7d44 <mixadd256int>
    1b81:	f3 0f 10 44 24 08    	movss  0x8(%rsp),%xmm0
    1b87:	4c 89 f7             	mov    %r14,%rdi
    1b8a:	e8 b1 8e 00 00       	callq  aa40 <measureFunction>
    1b8f:	bf 01 00 00 00       	mov    $0x1,%edi
    1b94:	b8 01 00 00 00       	mov    $0x1,%eax
    1b99:	48 8d 35 90 a3 00 00 	lea    0xa390(%rip),%rsi        # bf30 <_IO_stdin_used+0xf30>
    1ba0:	f3 0f 5a c0          	cvtss2sd %xmm0,%xmm0
    1ba4:	e8 d7 f4 ff ff       	callq  1080 <__printf_chk@plt>
    1ba9:	4c 8b 6d 08          	mov    0x8(%rbp),%r13
    1bad:	ba 0e 00 00 00       	mov    $0xe,%edx
    1bb2:	48 8d 35 bc 96 00 00 	lea    0x96bc(%rip),%rsi        # b275 <_IO_stdin_used+0x275>
    1bb9:	4c 89 ef             	mov    %r13,%rdi
    1bbc:	e8 6f f4 ff ff       	callq  1030 <strncmp@plt>
    1bc1:	85 c0                	test   %eax,%eax
    1bc3:	0f 85 2c 11 00 00    	jne    2cf5 <main+0x1c35>
    1bc9:	48 8d 35 39 62 00 00 	lea    0x6239(%rip),%rsi        # 7e09 <mixadd256int11>
    1bd0:	f3 0f 10 44 24 08    	movss  0x8(%rsp),%xmm0
    1bd6:	4c 89 f7             	mov    %r14,%rdi
    1bd9:	e8 62 8e 00 00       	callq  aa40 <measureFunction>
    1bde:	bf 01 00 00 00       	mov    $0x1,%edi
    1be3:	b8 01 00 00 00       	mov    $0x1,%eax
    1be8:	48 8d 35 09 a3 00 00 	lea    0xa309(%rip),%rsi        # bef8 <_IO_stdin_used+0xef8>
    1bef:	f3 0f 5a c0          	cvtss2sd %xmm0,%xmm0
    1bf3:	e8 88 f4 ff ff       	callq  1080 <__printf_chk@plt>
    1bf8:	4c 8b 6d 08          	mov    0x8(%rbp),%r13
    1bfc:	ba 0e 00 00 00       	mov    $0xe,%edx
    1c01:	48 8d 35 7c 96 00 00 	lea    0x967c(%rip),%rsi        # b284 <_IO_stdin_used+0x284>
    1c08:	4c 89 ef             	mov    %r13,%rdi
    1c0b:	e8 20 f4 ff ff       	callq  1030 <strncmp@plt>
    1c10:	85 c0                	test   %eax,%eax
    1c12:	0f 85 f9 10 00 00    	jne    2d11 <main+0x1c51>
    1c18:	48 8d 35 2c 5f 00 00 	lea    0x5f2c(%rip),%rsi        # 7b4b <mixadd256fpint>
    1c1f:	f3 0f 10 44 24 08    	movss  0x8(%rsp),%xmm0
    1c25:	4c 89 f7             	mov    %r14,%rdi
    1c28:	e8 13 8e 00 00       	callq  aa40 <measureFunction>
    1c2d:	bf 01 00 00 00       	mov    $0x1,%edi
    1c32:	b8 01 00 00 00       	mov    $0x1,%eax
    1c37:	48 8d 35 8a a2 00 00 	lea    0xa28a(%rip),%rsi        # bec8 <_IO_stdin_used+0xec8>
    1c3e:	f3 0f 5a c0          	cvtss2sd %xmm0,%xmm0
    1c42:	e8 39 f4 ff ff       	callq  1080 <__printf_chk@plt>
    1c47:	4c 8b 6d 08          	mov    0x8(%rbp),%r13
    1c4b:	ba 08 00 00 00       	mov    $0x8,%edx
    1c50:	48 8d 35 3c 96 00 00 	lea    0x963c(%rip),%rsi        # b293 <_IO_stdin_used+0x293>
    1c57:	4c 89 ef             	mov    %r13,%rdi
    1c5a:	e8 d1 f3 ff ff       	callq  1030 <strncmp@plt>
    1c5f:	85 c0                	test   %eax,%eax
    1c61:	0f 85 c6 10 00 00    	jne    2d2d <main+0x1c6d>
    1c67:	48 8d 35 32 60 00 00 	lea    0x6032(%rip),%rsi        # 7ca0 <mix256fp>
    1c6e:	f3 0f 10 44 24 08    	movss  0x8(%rsp),%xmm0
    1c74:	4c 89 f7             	mov    %r14,%rdi
    1c77:	e8 c4 8d 00 00       	callq  aa40 <measureFunction>
    1c7c:	bf 01 00 00 00       	mov    $0x1,%edi
    1c81:	b8 01 00 00 00       	mov    $0x1,%eax
    1c86:	48 8d 35 0b a2 00 00 	lea    0xa20b(%rip),%rsi        # be98 <_IO_stdin_used+0xe98>
    1c8d:	f3 0f 5a c0          	cvtss2sd %xmm0,%xmm0
    1c91:	e8 ea f3 ff ff       	callq  1080 <__printf_chk@plt>
    1c96:	4c 8b 6d 08          	mov    0x8(%rbp),%r13
    1c9a:	ba 0c 00 00 00       	mov    $0xc,%edx
    1c9f:	48 8d 35 f6 95 00 00 	lea    0x95f6(%rip),%rsi        # b29c <_IO_stdin_used+0x29c>
    1ca6:	4c 89 ef             	mov    %r13,%rdi
    1ca9:	e8 82 f3 ff ff       	callq  1030 <strncmp@plt>
    1cae:	85 c0                	test   %eax,%eax
    1cb0:	0f 85 93 10 00 00    	jne    2d49 <main+0x1c89>
    1cb6:	48 8d 35 f3 61 00 00 	lea    0x61f3(%rip),%rsi        # 7eb0 <latadd256int>
    1cbd:	f3 0f 10 44 24 08    	movss  0x8(%rsp),%xmm0
    1cc3:	4c 89 f7             	mov    %r14,%rdi
    1cc6:	e8 75 8d 00 00       	callq  aa40 <measureFunction>
    1ccb:	f3 0f 10 7c 24 0c    	movss  0xc(%rsp),%xmm7
    1cd1:	bf 01 00 00 00       	mov    $0x1,%edi
    1cd6:	48 8d 35 8b a1 00 00 	lea    0xa18b(%rip),%rsi        # be68 <_IO_stdin_used+0xe68>
    1cdd:	b8 01 00 00 00       	mov    $0x1,%eax
    1ce2:	f3 0f 5e f8          	divss  %xmm0,%xmm7
    1ce6:	66 0f ef c0          	pxor   %xmm0,%xmm0
    1cea:	f3 0f 5a c7          	cvtss2sd %xmm7,%xmm0
    1cee:	e8 8d f3 ff ff       	callq  1080 <__printf_chk@plt>
    1cf3:	4c 8b 6d 08          	mov    0x8(%rbp),%r13
    1cf7:	ba 0c 00 00 00       	mov    $0xc,%edx
    1cfc:	48 8d 35 a6 95 00 00 	lea    0x95a6(%rip),%rsi        # b2a9 <_IO_stdin_used+0x2a9>
    1d03:	4c 89 ef             	mov    %r13,%rdi
    1d06:	e8 25 f3 ff ff       	callq  1030 <strncmp@plt>
    1d0b:	85 c0                	test   %eax,%eax
    1d0d:	0f 85 52 10 00 00    	jne    2d65 <main+0x1ca5>
    1d13:	48 8d 35 81 65 00 00 	lea    0x6581(%rip),%rsi        # 829b <latmul256int>
    1d1a:	f3 0f 10 44 24 08    	movss  0x8(%rsp),%xmm0
    1d20:	bf 00 2f 68 59       	mov    $0x59682f00,%edi
    1d25:	e8 16 8d 00 00       	callq  aa40 <measureFunction>
    1d2a:	f3 0f 10 74 24 0c    	movss  0xc(%rsp),%xmm6
    1d30:	bf 01 00 00 00       	mov    $0x1,%edi
    1d35:	48 8d 35 f4 a0 00 00 	lea    0xa0f4(%rip),%rsi        # be30 <_IO_stdin_used+0xe30>
    1d3c:	b8 01 00 00 00       	mov    $0x1,%eax
    1d41:	f3 0f 5e f0          	divss  %xmm0,%xmm6
    1d45:	66 0f ef c0          	pxor   %xmm0,%xmm0
    1d49:	f3 0f 5a c6          	cvtss2sd %xmm6,%xmm0
    1d4d:	e8 2e f3 ff ff       	callq  1080 <__printf_chk@plt>
    1d52:	4c 8b 6d 08          	mov    0x8(%rbp),%r13
    1d56:	ba 0c 00 00 00       	mov    $0xc,%edx
    1d5b:	48 8d 35 54 95 00 00 	lea    0x9554(%rip),%rsi        # b2b6 <_IO_stdin_used+0x2b6>
    1d62:	4c 89 ef             	mov    %r13,%rdi
    1d65:	e8 c6 f2 ff ff       	callq  1030 <strncmp@plt>
    1d6a:	85 c0                	test   %eax,%eax
    1d6c:	0f 85 0f 10 00 00    	jne    2d81 <main+0x1cc1>
    1d72:	48 8d 35 d0 65 00 00 	lea    0x65d0(%rip),%rsi        # 8349 <latadd128int>
    1d79:	f3 0f 10 44 24 08    	movss  0x8(%rsp),%xmm0
    1d7f:	4c 89 f7             	mov    %r14,%rdi
    1d82:	e8 b9 8c 00 00       	callq  aa40 <measureFunction>
    1d87:	f3 0f 10 6c 24 0c    	movss  0xc(%rsp),%xmm5
    1d8d:	bf 01 00 00 00       	mov    $0x1,%edi
    1d92:	48 8d 35 67 a0 00 00 	lea    0xa067(%rip),%rsi        # be00 <_IO_stdin_used+0xe00>
    1d99:	b8 01 00 00 00       	mov    $0x1,%eax
    1d9e:	f3 0f 5e e8          	divss  %xmm0,%xmm5
    1da2:	66 0f ef c0          	pxor   %xmm0,%xmm0
    1da6:	f3 0f 5a c5          	cvtss2sd %xmm5,%xmm0
    1daa:	e8 d1 f2 ff ff       	callq  1080 <__printf_chk@plt>
    1daf:	4c 8b 6d 08          	mov    0x8(%rbp),%r13
    1db3:	ba 0c 00 00 00       	mov    $0xc,%edx
    1db8:	48 8d 35 04 95 00 00 	lea    0x9504(%rip),%rsi        # b2c3 <_IO_stdin_used+0x2c3>
    1dbf:	4c 89 ef             	mov    %r13,%rdi
    1dc2:	e8 69 f2 ff ff       	callq  1030 <strncmp@plt>
    1dc7:	85 c0                	test   %eax,%eax
    1dc9:	0f 85 ce 0f 00 00    	jne    2d9d <main+0x1cdd>
    1dcf:	48 8d 35 c6 6a 00 00 	lea    0x6ac6(%rip),%rsi        # 889c <latmul128int>
    1dd6:	f3 0f 10 44 24 08    	movss  0x8(%rsp),%xmm0
    1ddc:	bf 00 2f 68 59       	mov    $0x59682f00,%edi
    1de1:	e8 5a 8c 00 00       	callq  aa40 <measureFunction>
    1de6:	f3 0f 10 7c 24 0c    	movss  0xc(%rsp),%xmm7
    1dec:	bf 01 00 00 00       	mov    $0x1,%edi
    1df1:	48 8d 35 d0 9f 00 00 	lea    0x9fd0(%rip),%rsi        # bdc8 <_IO_stdin_used+0xdc8>
    1df8:	b8 01 00 00 00       	mov    $0x1,%eax
    1dfd:	f3 0f 5e f8          	divss  %xmm0,%xmm7
    1e01:	66 0f ef c0          	pxor   %xmm0,%xmm0
    1e05:	f3 0f 5a c7          	cvtss2sd %xmm7,%xmm0
    1e09:	e8 72 f2 ff ff       	callq  1080 <__printf_chk@plt>
    1e0e:	4c 8b 6d 08          	mov    0x8(%rbp),%r13
    1e12:	ba 0b 00 00 00       	mov    $0xb,%edx
    1e17:	48 8d 35 b2 94 00 00 	lea    0x94b2(%rip),%rsi        # b2d0 <_IO_stdin_used+0x2d0>
    1e1e:	4c 89 ef             	mov    %r13,%rdi
    1e21:	e8 0a f2 ff ff       	callq  1030 <strncmp@plt>
    1e26:	85 c0                	test   %eax,%eax
    1e28:	0f 85 8b 0f 00 00    	jne    2db9 <main+0x1cf9>
    1e2e:	48 8d 35 8c 6b 00 00 	lea    0x6b8c(%rip),%rsi        # 89c1 <latadd256fp>
    1e35:	f3 0f 10 44 24 08    	movss  0x8(%rsp),%xmm0
    1e3b:	bf 00 2f 68 59       	mov    $0x59682f00,%edi
    1e40:	e8 fb 8b 00 00       	callq  aa40 <measureFunction>
    1e45:	f3 0f 10 74 24 0c    	movss  0xc(%rsp),%xmm6
    1e4b:	bf 01 00 00 00       	mov    $0x1,%edi
    1e50:	48 8d 35 49 9f 00 00 	lea    0x9f49(%rip),%rsi        # bda0 <_IO_stdin_used+0xda0>
    1e57:	b8 01 00 00 00       	mov    $0x1,%eax
    1e5c:	f3 0f 5e f0          	divss  %xmm0,%xmm6
    1e60:	66 0f ef c0          	pxor   %xmm0,%xmm0
    1e64:	f3 0f 5a c6          	cvtss2sd %xmm6,%xmm0
    1e68:	e8 13 f2 ff ff       	callq  1080 <__printf_chk@plt>
    1e6d:	4c 8b 6d 08          	mov    0x8(%rbp),%r13
    1e71:	ba 0b 00 00 00       	mov    $0xb,%edx
    1e76:	48 8d 35 5f 94 00 00 	lea    0x945f(%rip),%rsi        # b2dc <_IO_stdin_used+0x2dc>
    1e7d:	4c 89 ef             	mov    %r13,%rdi
    1e80:	e8 ab f1 ff ff       	callq  1030 <strncmp@plt>
    1e85:	85 c0                	test   %eax,%eax
    1e87:	0f 85 48 0f 00 00    	jne    2dd5 <main+0x1d15>
    1e8d:	48 8d 35 e7 6c 00 00 	lea    0x6ce7(%rip),%rsi        # 8b7b <latmul256fp>
    1e94:	f3 0f 10 44 24 08    	movss  0x8(%rsp),%xmm0
    1e9a:	bf 00 2f 68 59       	mov    $0x59682f00,%edi
    1e9f:	e8 9c 8b 00 00       	callq  aa40 <measureFunction>
    1ea4:	f3 0f 10 6c 24 0c    	movss  0xc(%rsp),%xmm5
    1eaa:	bf 01 00 00 00       	mov    $0x1,%edi
    1eaf:	48 8d 35 c2 9e 00 00 	lea    0x9ec2(%rip),%rsi        # bd78 <_IO_stdin_used+0xd78>
    1eb6:	b8 01 00 00 00       	mov    $0x1,%eax
    1ebb:	f3 0f 5e e8          	divss  %xmm0,%xmm5
    1ebf:	66 0f ef c0          	pxor   %xmm0,%xmm0
    1ec3:	f3 0f 5a c5          	cvtss2sd %xmm5,%xmm0
    1ec7:	e8 b4 f1 ff ff       	callq  1080 <__printf_chk@plt>
    1ecc:	4c 8b 6d 08          	mov    0x8(%rbp),%r13
    1ed0:	ba 0b 00 00 00       	mov    $0xb,%edx
    1ed5:	48 8d 35 0c 94 00 00 	lea    0x940c(%rip),%rsi        # b2e8 <_IO_stdin_used+0x2e8>
    1edc:	4c 89 ef             	mov    %r13,%rdi
    1edf:	e8 4c f1 ff ff       	callq  1030 <strncmp@plt>
    1ee4:	85 c0                	test   %eax,%eax
    1ee6:	0f 85 05 0f 00 00    	jne    2df1 <main+0x1d31>
    1eec:	48 8d 35 99 79 00 00 	lea    0x7999(%rip),%rsi        # 988c <latadd128fp>
    1ef3:	f3 0f 10 44 24 08    	movss  0x8(%rsp),%xmm0
    1ef9:	bf 00 2f 68 59       	mov    $0x59682f00,%edi
    1efe:	e8 3d 8b 00 00       	callq  aa40 <measureFunction>
    1f03:	f3 0f 10 7c 24 0c    	movss  0xc(%rsp),%xmm7
    1f09:	bf 01 00 00 00       	mov    $0x1,%edi
    1f0e:	48 8d 35 3b 9e 00 00 	lea    0x9e3b(%rip),%rsi        # bd50 <_IO_stdin_used+0xd50>
    1f15:	b8 01 00 00 00       	mov    $0x1,%eax
    1f1a:	f3 0f 5e f8          	divss  %xmm0,%xmm7
    1f1e:	66 0f ef c0          	pxor   %xmm0,%xmm0
    1f22:	f3 0f 5a c7          	cvtss2sd %xmm7,%xmm0
    1f26:	e8 55 f1 ff ff       	callq  1080 <__printf_chk@plt>
    1f2b:	4c 8b 6d 08          	mov    0x8(%rbp),%r13
    1f2f:	ba 0b 00 00 00       	mov    $0xb,%edx
    1f34:	48 8d 35 b9 93 00 00 	lea    0x93b9(%rip),%rsi        # b2f4 <_IO_stdin_used+0x2f4>
    1f3b:	4c 89 ef             	mov    %r13,%rdi
    1f3e:	e8 ed f0 ff ff       	callq  1030 <strncmp@plt>
    1f43:	85 c0                	test   %eax,%eax
    1f45:	0f 85 c2 0e 00 00    	jne    2e0d <main+0x1d4d>
    1f4b:	48 8d 35 9a 79 00 00 	lea    0x799a(%rip),%rsi        # 98ec <latmul128fp>
    1f52:	f3 0f 10 44 24 08    	movss  0x8(%rsp),%xmm0
    1f58:	bf 00 2f 68 59       	mov    $0x59682f00,%edi
    1f5d:	e8 de 8a 00 00       	callq  aa40 <measureFunction>
    1f62:	f3 0f 10 74 24 0c    	movss  0xc(%rsp),%xmm6
    1f68:	bf 01 00 00 00       	mov    $0x1,%edi
    1f6d:	48 8d 35 b4 9d 00 00 	lea    0x9db4(%rip),%rsi        # bd28 <_IO_stdin_used+0xd28>
    1f74:	b8 01 00 00 00       	mov    $0x1,%eax
    1f79:	f3 0f 5e f0          	divss  %xmm0,%xmm6
    1f7d:	66 0f ef c0          	pxor   %xmm0,%xmm0
    1f81:	f3 0f 5a c6          	cvtss2sd %xmm6,%xmm0
    1f85:	e8 f6 f0 ff ff       	callq  1080 <__printf_chk@plt>
    1f8a:	4c 8b 6d 08          	mov    0x8(%rbp),%r13
    1f8e:	ba 08 00 00 00       	mov    $0x8,%edx
    1f93:	48 8d 35 51 93 00 00 	lea    0x9351(%rip),%rsi        # b2eb <_IO_stdin_used+0x2eb>
    1f9a:	4c 89 ef             	mov    %r13,%rdi
    1f9d:	e8 8e f0 ff ff       	callq  1030 <strncmp@plt>
    1fa2:	85 c0                	test   %eax,%eax
    1fa4:	0f 85 7f 0e 00 00    	jne    2e29 <main+0x1d69>
    1faa:	48 8d 35 0a 7a 00 00 	lea    0x7a0a(%rip),%rsi        # 99bb <add128fp>
    1fb1:	f3 0f 10 44 24 08    	movss  0x8(%rsp),%xmm0
    1fb7:	4c 89 f7             	mov    %r14,%rdi
    1fba:	e8 81 8a 00 00       	callq  aa40 <measureFunction>
    1fbf:	bf 01 00 00 00       	mov    $0x1,%edi
    1fc4:	b8 01 00 00 00       	mov    $0x1,%eax
    1fc9:	48 8d 35 38 9d 00 00 	lea    0x9d38(%rip),%rsi        # bd08 <_IO_stdin_used+0xd08>
    1fd0:	f3 0f 5a c0          	cvtss2sd %xmm0,%xmm0
    1fd4:	e8 a7 f0 ff ff       	callq  1080 <__printf_chk@plt>
    1fd9:	4c 8b 6d 08          	mov    0x8(%rbp),%r13
    1fdd:	ba 08 00 00 00       	mov    $0x8,%edx
    1fe2:	48 8d 35 0e 93 00 00 	lea    0x930e(%rip),%rsi        # b2f7 <_IO_stdin_used+0x2f7>
    1fe9:	4c 89 ef             	mov    %r13,%rdi
    1fec:	e8 3f f0 ff ff       	callq  1030 <strncmp@plt>
    1ff1:	85 c0                	test   %eax,%eax
    1ff3:	0f 85 4c 0e 00 00    	jne    2e45 <main+0x1d85>
    1ff9:	48 8d 35 4c 79 00 00 	lea    0x794c(%rip),%rsi        # 994c <mul128fp>
    2000:	f3 0f 10 44 24 08    	movss  0x8(%rsp),%xmm0
    2006:	4c 89 f7             	mov    %r14,%rdi
    2009:	e8 32 8a 00 00       	callq  aa40 <measureFunction>
    200e:	bf 01 00 00 00       	mov    $0x1,%edi
    2013:	b8 01 00 00 00       	mov    $0x1,%eax
    2018:	48 8d 35 c9 9c 00 00 	lea    0x9cc9(%rip),%rsi        # bce8 <_IO_stdin_used+0xce8>
    201f:	f3 0f 5a c0          	cvtss2sd %xmm0,%xmm0
    2023:	e8 58 f0 ff ff       	callq  1080 <__printf_chk@plt>
    2028:	4c 8b 6d 08          	mov    0x8(%rbp),%r13
    202c:	ba 09 00 00 00       	mov    $0x9,%edx
    2031:	48 8d 35 81 92 00 00 	lea    0x9281(%rip),%rsi        # b2b9 <_IO_stdin_used+0x2b9>
    2038:	4c 89 ef             	mov    %r13,%rdi
    203b:	e8 f0 ef ff ff       	callq  1030 <strncmp@plt>
    2040:	85 c0                	test   %eax,%eax
    2042:	0f 85 19 0e 00 00    	jne    2e61 <main+0x1da1>
    2048:	48 8d 35 65 63 00 00 	lea    0x6365(%rip),%rsi        # 83b4 <add128int>
    204f:	f3 0f 10 44 24 08    	movss  0x8(%rsp),%xmm0
    2055:	4c 89 f7             	mov    %r14,%rdi
    2058:	e8 e3 89 00 00       	callq  aa40 <measureFunction>
    205d:	bf 01 00 00 00       	mov    $0x1,%edi
    2062:	b8 01 00 00 00       	mov    $0x1,%eax
    2067:	48 8d 35 52 9c 00 00 	lea    0x9c52(%rip),%rsi        # bcc0 <_IO_stdin_used+0xcc0>
    206e:	f3 0f 5a c0          	cvtss2sd %xmm0,%xmm0
    2072:	e8 09 f0 ff ff       	callq  1080 <__printf_chk@plt>
    2077:	4c 8b 6d 08          	mov    0x8(%rbp),%r13
    207b:	ba 09 00 00 00       	mov    $0x9,%edx
    2080:	48 8d 35 4e 93 00 00 	lea    0x934e(%rip),%rsi        # b3d5 <_IO_stdin_used+0x3d5>
    2087:	4c 89 ef             	mov    %r13,%rdi
    208a:	e8 a1 ef ff ff       	callq  1030 <strncmp@plt>
    208f:	85 c0                	test   %eax,%eax
    2091:	0f 85 e6 0d 00 00    	jne    2e7d <main+0x1dbd>
    2097:	48 8d 35 7f 67 00 00 	lea    0x677f(%rip),%rsi        # 881d <mul128int>
    209e:	f3 0f 10 44 24 08    	movss  0x8(%rsp),%xmm0
    20a4:	4c 89 f7             	mov    %r14,%rdi
    20a7:	e8 94 89 00 00       	callq  aa40 <measureFunction>
    20ac:	bf 01 00 00 00       	mov    $0x1,%edi
    20b1:	b8 01 00 00 00       	mov    $0x1,%eax
    20b6:	48 8d 35 db 9b 00 00 	lea    0x9bdb(%rip),%rsi        # bc98 <_IO_stdin_used+0xc98>
    20bd:	f3 0f 5a c0          	cvtss2sd %xmm0,%xmm0
    20c1:	e8 ba ef ff ff       	callq  1080 <__printf_chk@plt>
    20c6:	4c 8b 6d 08          	mov    0x8(%rbp),%r13
    20ca:	ba 06 00 00 00       	mov    $0x6,%edx
    20cf:	48 8d 35 2d 92 00 00 	lea    0x922d(%rip),%rsi        # b303 <_IO_stdin_used+0x303>
    20d6:	4c 89 ef             	mov    %r13,%rdi
    20d9:	e8 52 ef ff ff       	callq  1030 <strncmp@plt>
    20de:	85 c0                	test   %eax,%eax
    20e0:	0f 85 b3 0d 00 00    	jne    2e99 <main+0x1dd9>
    20e6:	48 8d 35 c2 6c 00 00 	lea    0x6cc2(%rip),%rsi        # 8daf <fma256>
    20ed:	f3 0f 10 44 24 08    	movss  0x8(%rsp),%xmm0
    20f3:	bf 00 2f 68 59       	mov    $0x59682f00,%edi
    20f8:	e8 43 89 00 00       	callq  aa40 <measureFunction>
    20fd:	bf 01 00 00 00       	mov    $0x1,%edi
    2102:	b8 01 00 00 00       	mov    $0x1,%eax
    2107:	48 8d 35 d0 93 00 00 	lea    0x93d0(%rip),%rsi        # b4de <_IO_stdin_used+0x4de>
    210e:	f3 0f 5a c0          	cvtss2sd %xmm0,%xmm0
    2112:	e8 69 ef ff ff       	callq  1080 <__printf_chk@plt>
    2117:	4c 8b 6d 08          	mov    0x8(%rbp),%r13
    211b:	ba 06 00 00 00       	mov    $0x6,%edx
    2120:	48 8d 35 8a 90 00 00 	lea    0x908a(%rip),%rsi        # b1b1 <_IO_stdin_used+0x1b1>
    2127:	4c 89 ef             	mov    %r13,%rdi
    212a:	e8 01 ef ff ff       	callq  1030 <strncmp@plt>
    212f:	85 c0                	test   %eax,%eax
    2131:	0f 85 7e 0d 00 00    	jne    2eb5 <main+0x1df5>
    2137:	48 8d 35 29 6d 00 00 	lea    0x6d29(%rip),%rsi        # 8e67 <fma128>
    213e:	f3 0f 10 44 24 08    	movss  0x8(%rsp),%xmm0
    2144:	bf 00 2f 68 59       	mov    $0x59682f00,%edi
    2149:	e8 f2 88 00 00       	callq  aa40 <measureFunction>
    214e:	bf 01 00 00 00       	mov    $0x1,%edi
    2153:	b8 01 00 00 00       	mov    $0x1,%eax
    2158:	48 8d 35 64 93 00 00 	lea    0x9364(%rip),%rsi        # b4c3 <_IO_stdin_used+0x4c3>
    215f:	f3 0f 5a c0          	cvtss2sd %xmm0,%xmm0
    2163:	e8 18 ef ff ff       	callq  1080 <__printf_chk@plt>
    2168:	4c 8b 6d 08          	mov    0x8(%rbp),%r13
    216c:	ba 09 00 00 00       	mov    $0x9,%edx
    2171:	48 8d 35 88 91 00 00 	lea    0x9188(%rip),%rsi        # b300 <_IO_stdin_used+0x300>
    2178:	4c 89 ef             	mov    %r13,%rdi
    217b:	e8 b0 ee ff ff       	callq  1030 <strncmp@plt>
    2180:	85 c0                	test   %eax,%eax
    2182:	0f 85 49 0d 00 00    	jne    2ed1 <main+0x1e11>
    2188:	48 8d 35 8a 75 00 00 	lea    0x758a(%rip),%rsi        # 9719 <latfma256>
    218f:	f3 0f 10 44 24 08    	movss  0x8(%rsp),%xmm0
    2195:	bf 00 2f 68 59       	mov    $0x59682f00,%edi
    219a:	e8 a1 88 00 00       	callq  aa40 <measureFunction>
    219f:	f3 0f 10 6c 24 0c    	movss  0xc(%rsp),%xmm5
    21a5:	bf 01 00 00 00       	mov    $0x1,%edi
    21aa:	48 8d 35 bf 9a 00 00 	lea    0x9abf(%rip),%rsi        # bc70 <_IO_stdin_used+0xc70>
    21b1:	b8 01 00 00 00       	mov    $0x1,%eax
    21b6:	f3 0f 5e e8          	divss  %xmm0,%xmm5
    21ba:	66 0f ef c0          	pxor   %xmm0,%xmm0
    21be:	f3 0f 5a c5          	cvtss2sd %xmm5,%xmm0
    21c2:	e8 b9 ee ff ff       	callq  1080 <__printf_chk@plt>
    21c7:	4c 8b 6d 08          	mov    0x8(%rbp),%r13
    21cb:	ba 09 00 00 00       	mov    $0x9,%edx
    21d0:	48 8d 35 33 91 00 00 	lea    0x9133(%rip),%rsi        # b30a <_IO_stdin_used+0x30a>
    21d7:	4c 89 ef             	mov    %r13,%rdi
    21da:	e8 51 ee ff ff       	callq  1030 <strncmp@plt>
    21df:	85 c0                	test   %eax,%eax
    21e1:	0f 85 06 0d 00 00    	jne    2eed <main+0x1e2d>
    21e7:	48 8d 35 e3 75 00 00 	lea    0x75e3(%rip),%rsi        # 97d1 <latfma128>
    21ee:	f3 0f 10 44 24 08    	movss  0x8(%rsp),%xmm0
    21f4:	bf 00 2f 68 59       	mov    $0x59682f00,%edi
    21f9:	e8 42 88 00 00       	callq  aa40 <measureFunction>
    21fe:	f3 0f 10 7c 24 0c    	movss  0xc(%rsp),%xmm7
    2204:	bf 01 00 00 00       	mov    $0x1,%edi
    2209:	48 8d 35 38 9a 00 00 	lea    0x9a38(%rip),%rsi        # bc48 <_IO_stdin_used+0xc48>
    2210:	b8 01 00 00 00       	mov    $0x1,%eax
    2215:	f3 0f 5e f8          	divss  %xmm0,%xmm7
    2219:	66 0f ef c0          	pxor   %xmm0,%xmm0
    221d:	f3 0f 5a c7          	cvtss2sd %xmm7,%xmm0
    2221:	e8 5a ee ff ff       	callq  1080 <__printf_chk@plt>
    2226:	4c 8b 6d 08          	mov    0x8(%rbp),%r13
    222a:	ba 06 00 00 00       	mov    $0x6,%edx
    222f:	48 8d 35 ec 90 00 00 	lea    0x90ec(%rip),%rsi        # b322 <_IO_stdin_used+0x322>
    2236:	4c 89 ef             	mov    %r13,%rdi
    2239:	e8 f2 ed ff ff       	callq  1030 <strncmp@plt>
    223e:	85 c0                	test   %eax,%eax
    2240:	0f 85 c3 0c 00 00    	jne    2f09 <main+0x1e49>
    2246:	48 8d 35 8f 68 00 00 	lea    0x688f(%rip),%rsi        # 8adc <add256fp>
    224d:	f3 0f 10 44 24 08    	movss  0x8(%rsp),%xmm0
    2253:	bf 00 2f 68 59       	mov    $0x59682f00,%edi
    2258:	e8 e3 87 00 00       	callq  aa40 <measureFunction>
    225d:	bf 01 00 00 00       	mov    $0x1,%edi
    2262:	b8 01 00 00 00       	mov    $0x1,%eax
    2267:	48 8d 35 39 92 00 00 	lea    0x9239(%rip),%rsi        # b4a7 <_IO_stdin_used+0x4a7>
    226e:	f3 0f 5a c0          	cvtss2sd %xmm0,%xmm0
    2272:	e8 09 ee ff ff       	callq  1080 <__printf_chk@plt>
    2277:	4c 8b 6d 08          	mov    0x8(%rbp),%r13
    227b:	ba 06 00 00 00       	mov    $0x6,%edx
    2280:	48 8d 35 8d 90 00 00 	lea    0x908d(%rip),%rsi        # b314 <_IO_stdin_used+0x314>
    2287:	4c 89 ef             	mov    %r13,%rdi
    228a:	e8 a1 ed ff ff       	callq  1030 <strncmp@plt>
    228f:	85 c0                	test   %eax,%eax
    2291:	0f 85 8e 0c 00 00    	jne    2f25 <main+0x1e65>
    2297:	48 8d 35 9f 67 00 00 	lea    0x679f(%rip),%rsi        # 8a3d <mul256fp>
    229e:	f3 0f 10 44 24 08    	movss  0x8(%rsp),%xmm0
    22a4:	bf 00 2f 68 59       	mov    $0x59682f00,%edi
    22a9:	e8 92 87 00 00       	callq  aa40 <measureFunction>
    22ae:	bf 01 00 00 00       	mov    $0x1,%edi
    22b3:	b8 01 00 00 00       	mov    $0x1,%eax
    22b8:	48 8d 35 cc 91 00 00 	lea    0x91cc(%rip),%rsi        # b48b <_IO_stdin_used+0x48b>
    22bf:	f3 0f 5a c0          	cvtss2sd %xmm0,%xmm0
    22c3:	e8 b8 ed ff ff       	callq  1080 <__printf_chk@plt>
    22c8:	4c 8b 6d 08          	mov    0x8(%rbp),%r13
    22cc:	ba 0c 00 00 00       	mov    $0xc,%edx
    22d1:	48 8d 35 44 90 00 00 	lea    0x9044(%rip),%rsi        # b31c <_IO_stdin_used+0x31c>
    22d8:	4c 89 ef             	mov    %r13,%rdi
    22db:	e8 50 ed ff ff       	callq  1030 <strncmp@plt>
    22e0:	85 c0                	test   %eax,%eax
    22e2:	0f 85 59 0c 00 00    	jne    2f41 <main+0x1e81>
    22e8:	48 8d 35 33 6c 00 00 	lea    0x6c33(%rip),%rsi        # 8f22 <mixfmafadd256>
    22ef:	f3 0f 10 44 24 08    	movss  0x8(%rsp),%xmm0
    22f5:	bf 05 7a d7 03       	mov    $0x3d77a05,%edi
    22fa:	48 c1 e7 09          	shl    $0x9,%rdi
    22fe:	e8 3d 87 00 00       	callq  aa40 <measureFunction>
    2303:	bf 01 00 00 00       	mov    $0x1,%edi
    2308:	b8 01 00 00 00       	mov    $0x1,%eax
    230d:	48 8d 35 0c 99 00 00 	lea    0x990c(%rip),%rsi        # bc20 <_IO_stdin_used+0xc20>
    2314:	f3 0f 5a c0          	cvtss2sd %xmm0,%xmm0
    2318:	e8 63 ed ff ff       	callq  1080 <__printf_chk@plt>
    231d:	4c 8b 6d 08          	mov    0x8(%rbp),%r13
    2321:	ba 0b 00 00 00       	mov    $0xb,%edx
    2326:	48 8d 35 fd 8f 00 00 	lea    0x8ffd(%rip),%rsi        # b32a <_IO_stdin_used+0x32a>
    232d:	4c 89 ef             	mov    %r13,%rdi
    2330:	e8 fb ec ff ff       	callq  1030 <strncmp@plt>
    2335:	85 c0                	test   %eax,%eax
    2337:	0f 85 20 0c 00 00    	jne    2f5d <main+0x1e9d>
    233d:	48 8d 35 8d 6e 00 00 	lea    0x6e8d(%rip),%rsi        # 91d1 <mixfmaadd256>
    2344:	f3 0f 10 44 24 08    	movss  0x8(%rsp),%xmm0
    234a:	bf 05 7a d7 03       	mov    $0x3d77a05,%edi
    234f:	48 c1 e7 09          	shl    $0x9,%rdi
    2353:	e8 e8 86 00 00       	callq  aa40 <measureFunction>
    2358:	bf 01 00 00 00       	mov    $0x1,%edi
    235d:	b8 01 00 00 00       	mov    $0x1,%eax
    2362:	48 8d 35 8f 98 00 00 	lea    0x988f(%rip),%rsi        # bbf8 <_IO_stdin_used+0xbf8>
    2369:	f3 0f 5a c0          	cvtss2sd %xmm0,%xmm0
    236d:	e8 0e ed ff ff       	callq  1080 <__printf_chk@plt>
    2372:	4c 8b 6d 08          	mov    0x8(%rbp),%r13
    2376:	ba 0e 00 00 00       	mov    $0xe,%edx
    237b:	48 8d 35 b5 8f 00 00 	lea    0x8fb5(%rip),%rsi        # b337 <_IO_stdin_used+0x337>
    2382:	4c 89 ef             	mov    %r13,%rdi
    2385:	e8 a6 ec ff ff       	callq  1030 <strncmp@plt>
    238a:	85 c0                	test   %eax,%eax
    238c:	0f 85 e7 0b 00 00    	jne    2f79 <main+0x1eb9>
    2392:	f3 0f 10 44 24 08    	movss  0x8(%rsp),%xmm0
    2398:	bf 05 7a d7 03       	mov    $0x3d77a05,%edi
    239d:	48 8d 35 8c 86 00 00 	lea    0x868c(%rip),%rsi        # aa30 <mixfmaaddmem256wrapper>
    23a4:	48 c1 e7 09          	shl    $0x9,%rdi
    23a8:	e8 93 86 00 00       	callq  aa40 <measureFunction>
    23ad:	bf 01 00 00 00       	mov    $0x1,%edi
    23b2:	b8 01 00 00 00       	mov    $0x1,%eax
    23b7:	48 8d 35 0a 98 00 00 	lea    0x980a(%rip),%rsi        # bbc8 <_IO_stdin_used+0xbc8>
    23be:	f3 0f 5a c0          	cvtss2sd %xmm0,%xmm0
    23c2:	e8 b9 ec ff ff       	callq  1080 <__printf_chk@plt>
    23c7:	4c 8b 6d 08          	mov    0x8(%rbp),%r13
    23cb:	ba 0b 00 00 00       	mov    $0xb,%edx
    23d0:	48 8d 35 70 8f 00 00 	lea    0x8f70(%rip),%rsi        # b347 <_IO_stdin_used+0x347>
    23d7:	4c 89 ef             	mov    %r13,%rdi
    23da:	e8 51 ec ff ff       	callq  1030 <strncmp@plt>
    23df:	85 c0                	test   %eax,%eax
    23e1:	75 39                	jne    241c <main+0x135c>
    23e3:	48 8d 35 98 6e 00 00 	lea    0x6e98(%rip),%rsi        # 9282 <mixfmaand256>
    23ea:	f3 0f 10 44 24 08    	movss  0x8(%rsp),%xmm0
    23f0:	bf 05 7a d7 03       	mov    $0x3d77a05,%edi
    23f5:	48 c1 e7 09          	shl    $0x9,%rdi
    23f9:	e8 42 86 00 00       	callq  aa40 <measureFunction>
    23fe:	bf 01 00 00 00       	mov    $0x1,%edi
    2403:	b8 01 00 00 00       	mov    $0x1,%eax
    2408:	48 8d 35 91 97 00 00 	lea    0x9791(%rip),%rsi        # bba0 <_IO_stdin_used+0xba0>
    240f:	f3 0f 5a c0          	cvtss2sd %xmm0,%xmm0
    2413:	e8 68 ec ff ff       	callq  1080 <__printf_chk@plt>
    2418:	4c 8b 6d 08          	mov    0x8(%rbp),%r13
    241c:	ba 0e 00 00 00       	mov    $0xe,%edx
    2421:	48 8d 35 0f 8f 00 00 	lea    0x8f0f(%rip),%rsi        # b337 <_IO_stdin_used+0x337>
    2428:	4c 89 ef             	mov    %r13,%rdi
    242b:	e8 00 ec ff ff       	callq  1030 <strncmp@plt>
    2430:	85 c0                	test   %eax,%eax
    2432:	0f 85 5d 0b 00 00    	jne    2f95 <main+0x1ed5>
    2438:	f3 0f 10 44 24 08    	movss  0x8(%rsp),%xmm0
    243e:	bf 05 7a d7 03       	mov    $0x3d77a05,%edi
    2443:	48 8d 35 d6 85 00 00 	lea    0x85d6(%rip),%rsi        # aa20 <mixfmaandmem256wrapper>
    244a:	48 c1 e7 09          	shl    $0x9,%rdi
    244e:	e8 ed 85 00 00       	callq  aa40 <measureFunction>
    2453:	bf 01 00 00 00       	mov    $0x1,%edi
    2458:	b8 01 00 00 00       	mov    $0x1,%eax
    245d:	48 8d 35 e4 9b 00 00 	lea    0x9be4(%rip),%rsi        # c048 <_IO_stdin_used+0x1048>
    2464:	f3 0f 5a c0          	cvtss2sd %xmm0,%xmm0
    2468:	e8 13 ec ff ff       	callq  1080 <__printf_chk@plt>
    246d:	4c 8b 6d 08          	mov    0x8(%rbp),%r13
    2471:	ba 0d 00 00 00       	mov    $0xd,%edx
    2476:	48 8d 35 9a 8c 00 00 	lea    0x8c9a(%rip),%rsi        # b117 <_IO_stdin_used+0x117>
    247d:	4c 89 ef             	mov    %r13,%rdi
    2480:	e8 ab eb ff ff       	callq  1030 <strncmp@plt>
    2485:	85 c0                	test   %eax,%eax
    2487:	0f 85 24 0b 00 00    	jne    2fb1 <main+0x1ef1>
    248d:	48 8d 35 04 71 00 00 	lea    0x7104(%rip),%rsi        # 9598 <nemesfpumix21>
    2494:	f3 0f 10 44 24 08    	movss  0x8(%rsp),%xmm0
    249a:	bf 05 7a d7 03       	mov    $0x3d77a05,%edi
    249f:	48 c1 e7 09          	shl    $0x9,%rdi
    24a3:	e8 98 85 00 00       	callq  aa40 <measureFunction>
    24a8:	bf 01 00 00 00       	mov    $0x1,%edi
    24ad:	b8 01 00 00 00       	mov    $0x1,%eax
    24b2:	48 8d 35 b7 96 00 00 	lea    0x96b7(%rip),%rsi        # bb70 <_IO_stdin_used+0xb70>
    24b9:	f3 0f 5a c0          	cvtss2sd %xmm0,%xmm0
    24bd:	e8 be eb ff ff       	callq  1080 <__printf_chk@plt>
    24c2:	4c 8b 6d 08          	mov    0x8(%rbp),%r13
    24c6:	ba 0f 00 00 00       	mov    $0xf,%edx
    24cb:	48 8d 35 82 8e 00 00 	lea    0x8e82(%rip),%rsi        # b354 <_IO_stdin_used+0x354>
    24d2:	4c 89 ef             	mov    %r13,%rdi
    24d5:	e8 56 eb ff ff       	callq  1030 <strncmp@plt>
    24da:	85 c0                	test   %eax,%eax
    24dc:	0f 85 eb 0a 00 00    	jne    2fcd <main+0x1f0d>
    24e2:	48 8d 35 0b 57 00 00 	lea    0x570b(%rip),%rsi        # 7bf4 <mix256faddintadd>
    24e9:	f3 0f 10 44 24 08    	movss  0x8(%rsp),%xmm0
    24ef:	bf 00 2f 68 59       	mov    $0x59682f00,%edi
    24f4:	e8 47 85 00 00       	callq  aa40 <measureFunction>
    24f9:	bf 01 00 00 00       	mov    $0x1,%edi
    24fe:	b8 01 00 00 00       	mov    $0x1,%eax
    2503:	48 8d 35 3e 96 00 00 	lea    0x963e(%rip),%rsi        # bb48 <_IO_stdin_used+0xb48>
    250a:	f3 0f 5a c0          	cvtss2sd %xmm0,%xmm0
    250e:	e8 6d eb ff ff       	callq  1080 <__printf_chk@plt>
    2513:	4c 8b 6d 08          	mov    0x8(%rbp),%r13
    2517:	ba 08 00 00 00       	mov    $0x8,%edx
    251c:	48 8d 35 42 8e 00 00 	lea    0x8e42(%rip),%rsi        # b365 <_IO_stdin_used+0x365>
    2523:	4c 89 ef             	mov    %r13,%rdi
    2526:	e8 05 eb ff ff       	callq  1030 <strncmp@plt>
    252b:	85 c0                	test   %eax,%eax
    252d:	0f 85 b6 0a 00 00    	jne    2fe9 <main+0x1f29>
    2533:	48 8d 35 90 75 00 00 	lea    0x7590(%rip),%rsi        # 9aca <latmul16>
    253a:	f3 0f 10 44 24 08    	movss  0x8(%rsp),%xmm0
    2540:	bf 00 2f 68 59       	mov    $0x59682f00,%edi
    2545:	e8 f6 84 00 00       	callq  aa40 <measureFunction>
    254a:	f3 0f 10 6c 24 0c    	movss  0xc(%rsp),%xmm5
    2550:	bf 01 00 00 00       	mov    $0x1,%edi
    2555:	48 8d 35 c4 95 00 00 	lea    0x95c4(%rip),%rsi        # bb20 <_IO_stdin_used+0xb20>
    255c:	b8 01 00 00 00       	mov    $0x1,%eax
    2561:	f3 0f 5e e8          	divss  %xmm0,%xmm5
    2565:	66 0f ef c0          	pxor   %xmm0,%xmm0
    2569:	f3 0f 5a c5          	cvtss2sd %xmm5,%xmm0
    256d:	e8 0e eb ff ff       	callq  1080 <__printf_chk@plt>
    2572:	4c 8b 6d 08          	mov    0x8(%rbp),%r13
    2576:	ba 08 00 00 00       	mov    $0x8,%edx
    257b:	48 8d 35 ec 8d 00 00 	lea    0x8dec(%rip),%rsi        # b36e <_IO_stdin_used+0x36e>
    2582:	4c 89 ef             	mov    %r13,%rdi
    2585:	e8 a6 ea ff ff       	callq  1030 <strncmp@plt>
    258a:	85 c0                	test   %eax,%eax
    258c:	0f 85 73 0a 00 00    	jne    3005 <main+0x1f45>
    2592:	48 8d 35 91 74 00 00 	lea    0x7491(%rip),%rsi        # 9a2a <latmul64>
    2599:	f3 0f 10 44 24 08    	movss  0x8(%rsp),%xmm0
    259f:	bf 00 2f 68 59       	mov    $0x59682f00,%edi
    25a4:	e8 97 84 00 00       	callq  aa40 <measureFunction>
    25a9:	f3 0f 10 6c 24 0c    	movss  0xc(%rsp),%xmm5
    25af:	bf 01 00 00 00       	mov    $0x1,%edi
    25b4:	48 8d 35 3d 95 00 00 	lea    0x953d(%rip),%rsi        # baf8 <_IO_stdin_used+0xaf8>
    25bb:	b8 01 00 00 00       	mov    $0x1,%eax
    25c0:	f3 0f 5e e8          	divss  %xmm0,%xmm5
    25c4:	66 0f ef c0          	pxor   %xmm0,%xmm0
    25c8:	f3 0f 5a c5          	cvtss2sd %xmm5,%xmm0
    25cc:	e8 af ea ff ff       	callq  1080 <__printf_chk@plt>
    25d1:	4c 8b 6d 08          	mov    0x8(%rbp),%r13
    25d5:	ba 05 00 00 00       	mov    $0x5,%edx
    25da:	48 8d 35 87 8d 00 00 	lea    0x8d87(%rip),%rsi        # b368 <_IO_stdin_used+0x368>
    25e1:	4c 89 ef             	mov    %r13,%rdi
    25e4:	e8 47 ea ff ff       	callq  1030 <strncmp@plt>
    25e9:	85 c0                	test   %eax,%eax
    25eb:	0f 85 30 0a 00 00    	jne    3021 <main+0x1f61>
    25f1:	48 8d 35 86 75 00 00 	lea    0x7586(%rip),%rsi        # 9b7e <mul16>
    25f8:	f3 0f 10 44 24 08    	movss  0x8(%rsp),%xmm0
    25fe:	bf 00 2f 68 59       	mov    $0x59682f00,%edi
    2603:	e8 38 84 00 00       	callq  aa40 <measureFunction>
    2608:	bf 01 00 00 00       	mov    $0x1,%edi
    260d:	b8 01 00 00 00       	mov    $0x1,%eax
    2612:	48 8d 35 57 8e 00 00 	lea    0x8e57(%rip),%rsi        # b470 <_IO_stdin_used+0x470>
    2619:	f3 0f 5a c0          	cvtss2sd %xmm0,%xmm0
    261d:	e8 5e ea ff ff       	callq  1080 <__printf_chk@plt>
    2622:	4c 8b 6d 08          	mov    0x8(%rbp),%r13
    2626:	ba 05 00 00 00       	mov    $0x5,%edx
    262b:	48 8d 35 5d 8d 00 00 	lea    0x8d5d(%rip),%rsi        # b38f <_IO_stdin_used+0x38f>
    2632:	4c 89 ef             	mov    %r13,%rdi
    2635:	e8 f6 e9 ff ff       	callq  1030 <strncmp@plt>
    263a:	85 c0                	test   %eax,%eax
    263c:	0f 85 fb 09 00 00    	jne    303d <main+0x1f7d>
    2642:	48 8d 35 e9 75 00 00 	lea    0x75e9(%rip),%rsi        # 9c32 <mul64>
    2649:	f3 0f 10 44 24 08    	movss  0x8(%rsp),%xmm0
    264f:	bf 00 2f 68 59       	mov    $0x59682f00,%edi
    2654:	e8 e7 83 00 00       	callq  aa40 <measureFunction>
    2659:	bf 01 00 00 00       	mov    $0x1,%edi
    265e:	b8 01 00 00 00       	mov    $0x1,%eax
    2663:	48 8d 35 eb 8d 00 00 	lea    0x8deb(%rip),%rsi        # b455 <_IO_stdin_used+0x455>
    266a:	f3 0f 5a c0          	cvtss2sd %xmm0,%xmm0
    266e:	e8 0d ea ff ff       	callq  1080 <__printf_chk@plt>
    2673:	4c 8b 6d 08          	mov    0x8(%rbp),%r13
    2677:	ba 05 00 00 00       	mov    $0x5,%edx
    267c:	48 8d 35 f4 8c 00 00 	lea    0x8cf4(%rip),%rsi        # b377 <_IO_stdin_used+0x377>
    2683:	4c 89 ef             	mov    %r13,%rdi
    2686:	e8 a5 e9 ff ff       	callq  1030 <strncmp@plt>
    268b:	85 c0                	test   %eax,%eax
    268d:	0f 85 c6 09 00 00    	jne    3059 <main+0x1f99>
    2693:	48 8d 35 7a 76 00 00 	lea    0x767a(%rip),%rsi        # 9d14 <mixmul16mul64>
    269a:	f3 0f 10 44 24 08    	movss  0x8(%rsp),%xmm0
    26a0:	bf 00 2f 68 59       	mov    $0x59682f00,%edi
    26a5:	e8 96 83 00 00       	callq  aa40 <measureFunction>
    26aa:	bf 01 00 00 00       	mov    $0x1,%edi
    26af:	b8 01 00 00 00       	mov    $0x1,%eax
    26b4:	48 8d 35 0d 94 00 00 	lea    0x940d(%rip),%rsi        # bac8 <_IO_stdin_used+0xac8>
    26bb:	f3 0f 5a c0          	cvtss2sd %xmm0,%xmm0
    26bf:	e8 bc e9 ff ff       	callq  1080 <__printf_chk@plt>
    26c4:	4c 8b 6d 08          	mov    0x8(%rbp),%r13
    26c8:	ba 05 00 00 00       	mov    $0x5,%edx
    26cd:	48 8d 35 b1 8c 00 00 	lea    0x8cb1(%rip),%rsi        # b385 <_IO_stdin_used+0x385>
    26d4:	4c 89 ef             	mov    %r13,%rdi
    26d7:	e8 54 e9 ff ff       	callq  1030 <strncmp@plt>
    26dc:	85 c0                	test   %eax,%eax
    26de:	0f 85 91 09 00 00    	jne    3075 <main+0x1fb5>
    26e4:	48 8d 35 d5 76 00 00 	lea    0x76d5(%rip),%rsi        # 9dc0 <mixmul16mul64_21>
    26eb:	f3 0f 10 44 24 08    	movss  0x8(%rsp),%xmm0
    26f1:	bf 00 2f 68 59       	mov    $0x59682f00,%edi
    26f6:	e8 45 83 00 00       	callq  aa40 <measureFunction>
    26fb:	bf 01 00 00 00       	mov    $0x1,%edi
    2700:	b8 01 00 00 00       	mov    $0x1,%eax
    2705:	48 8d 35 8c 93 00 00 	lea    0x938c(%rip),%rsi        # ba98 <_IO_stdin_used+0xa98>
    270c:	f3 0f 5a c0          	cvtss2sd %xmm0,%xmm0
    2710:	e8 6b e9 ff ff       	callq  1080 <__printf_chk@plt>
    2715:	4c 8b 6d 08          	mov    0x8(%rbp),%r13
    2719:	ba 07 00 00 00       	mov    $0x7,%edx
    271e:	48 8d 35 76 8c 00 00 	lea    0x8c76(%rip),%rsi        # b39b <_IO_stdin_used+0x39b>
    2725:	4c 89 ef             	mov    %r13,%rdi
    2728:	e8 03 e9 ff ff       	callq  1030 <strncmp@plt>
    272d:	85 c0                	test   %eax,%eax
    272f:	0f 85 5c 09 00 00    	jne    3091 <main+0x1fd1>
    2735:	f3 0f 10 44 24 08    	movss  0x8(%rsp),%xmm0
    273b:	48 8d 35 2e 82 00 00 	lea    0x822e(%rip),%rsi        # a970 <load128wrapper>
    2742:	bf 00 2f 68 59       	mov    $0x59682f00,%edi
    2747:	e8 f4 82 00 00       	callq  aa40 <measureFunction>
    274c:	bf 01 00 00 00       	mov    $0x1,%edi
    2751:	b8 01 00 00 00       	mov    $0x1,%eax
    2756:	48 8d 35 db 8c 00 00 	lea    0x8cdb(%rip),%rsi        # b438 <_IO_stdin_used+0x438>
    275d:	f3 0f 5a c0          	cvtss2sd %xmm0,%xmm0
    2761:	e8 1a e9 ff ff       	callq  1080 <__printf_chk@plt>
    2766:	4c 8b 6d 08          	mov    0x8(%rbp),%r13
    276a:	ba 0d 00 00 00       	mov    $0xd,%edx
    276f:	48 8d 35 1f 8c 00 00 	lea    0x8c1f(%rip),%rsi        # b395 <_IO_stdin_used+0x395>
    2776:	4c 89 ef             	mov    %r13,%rdi
    2779:	e8 b2 e8 ff ff       	callq  1030 <strncmp@plt>
    277e:	85 c0                	test   %eax,%eax
    2780:	0f 85 27 09 00 00    	jne    30ad <main+0x1fed>
    2786:	f3 0f 10 44 24 08    	movss  0x8(%rsp),%xmm0
    278c:	48 8d 35 ed 81 00 00 	lea    0x81ed(%rip),%rsi        # a980 <spacedload128wrapper>
    2793:	bf 00 2f 68 59       	mov    $0x59682f00,%edi
    2798:	e8 a3 82 00 00       	callq  aa40 <measureFunction>
    279d:	bf 01 00 00 00       	mov    $0x1,%edi
    27a2:	b8 01 00 00 00       	mov    $0x1,%eax
    27a7:	48 8d 35 c2 92 00 00 	lea    0x92c2(%rip),%rsi        # ba70 <_IO_stdin_used+0xa70>
    27ae:	f3 0f 5a c0          	cvtss2sd %xmm0,%xmm0
    27b2:	e8 c9 e8 ff ff       	callq  1080 <__printf_chk@plt>
    27b7:	4c 8b 6d 08          	mov    0x8(%rbp),%r13
    27bb:	ba 07 00 00 00       	mov    $0x7,%edx
    27c0:	48 8d 35 dc 8b 00 00 	lea    0x8bdc(%rip),%rsi        # b3a3 <_IO_stdin_used+0x3a3>
    27c7:	4c 89 ef             	mov    %r13,%rdi
    27ca:	e8 61 e8 ff ff       	callq  1030 <strncmp@plt>
    27cf:	85 c0                	test   %eax,%eax
    27d1:	0f 85 f2 08 00 00    	jne    30c9 <main+0x2009>
    27d7:	f3 0f 10 44 24 08    	movss  0x8(%rsp),%xmm0
    27dd:	48 8d 35 bc 81 00 00 	lea    0x81bc(%rip),%rsi        # a9a0 <load256wrapper>
    27e4:	bf 00 2f 68 59       	mov    $0x59682f00,%edi
    27e9:	e8 52 82 00 00       	callq  aa40 <measureFunction>
    27ee:	bf 01 00 00 00       	mov    $0x1,%edi
    27f3:	b8 01 00 00 00       	mov    $0x1,%eax
    27f8:	48 8d 35 1c 8c 00 00 	lea    0x8c1c(%rip),%rsi        # b41b <_IO_stdin_used+0x41b>
    27ff:	f3 0f 5a c0          	cvtss2sd %xmm0,%xmm0
    2803:	e8 78 e8 ff ff       	callq  1080 <__printf_chk@plt>
    2808:	4c 8b 6d 08          	mov    0x8(%rbp),%r13
    280c:	ba 0d 00 00 00       	mov    $0xd,%edx
    2811:	48 8d 35 93 8b 00 00 	lea    0x8b93(%rip),%rsi        # b3ab <_IO_stdin_used+0x3ab>
    2818:	4c 89 ef             	mov    %r13,%rdi
    281b:	e8 10 e8 ff ff       	callq  1030 <strncmp@plt>
    2820:	85 c0                	test   %eax,%eax
    2822:	0f 85 bd 08 00 00    	jne    30e5 <main+0x2025>
    2828:	f3 0f 10 44 24 08    	movss  0x8(%rsp),%xmm0
    282e:	48 8d 35 5b 81 00 00 	lea    0x815b(%rip),%rsi        # a990 <spacedstorescalarwrapper>
    2835:	bf 00 2f 68 59       	mov    $0x59682f00,%edi
    283a:	e8 01 82 00 00       	callq  aa40 <measureFunction>
    283f:	bf 01 00 00 00       	mov    $0x1,%edi
    2844:	b8 01 00 00 00       	mov    $0x1,%eax
    2849:	48 8d 35 f8 91 00 00 	lea    0x91f8(%rip),%rsi        # ba48 <_IO_stdin_used+0xa48>
    2850:	f3 0f 5a c0          	cvtss2sd %xmm0,%xmm0
    2854:	e8 27 e8 ff ff       	callq  1080 <__printf_chk@plt>
    2859:	4c 8b 6d 08          	mov    0x8(%rbp),%r13
    285d:	ba 07 00 00 00       	mov    $0x7,%edx
    2862:	48 8d 35 54 8b 00 00 	lea    0x8b54(%rip),%rsi        # b3bd <_IO_stdin_used+0x3bd>
    2869:	4c 89 ef             	mov    %r13,%rdi
    286c:	e8 bf e7 ff ff       	callq  1030 <strncmp@plt>
    2871:	85 c0                	test   %eax,%eax
    2873:	75 35                	jne    28aa <main+0x17ea>
    2875:	f3 0f 10 44 24 08    	movss  0x8(%rsp),%xmm0
    287b:	48 8d 35 3e 81 00 00 	lea    0x813e(%rip),%rsi        # a9c0 <store128wrapper>
    2882:	bf 00 2f 68 59       	mov    $0x59682f00,%edi
    2887:	e8 b4 81 00 00       	callq  aa40 <measureFunction>
    288c:	bf 01 00 00 00       	mov    $0x1,%edi
    2891:	b8 01 00 00 00       	mov    $0x1,%eax
    2896:	48 8d 35 60 8b 00 00 	lea    0x8b60(%rip),%rsi        # b3fd <_IO_stdin_used+0x3fd>
    289d:	f3 0f 5a c0          	cvtss2sd %xmm0,%xmm0
    28a1:	e8 da e7 ff ff       	callq  1080 <__printf_chk@plt>
    28a6:	4c 8b 6d 08          	mov    0x8(%rbp),%r13
    28aa:	ba 07 00 00 00       	mov    $0x7,%edx
    28af:	48 8d 35 10 8b 00 00 	lea    0x8b10(%rip),%rsi        # b3c6 <_IO_stdin_used+0x3c6>
    28b6:	4c 89 ef             	mov    %r13,%rdi
    28b9:	e8 72 e7 ff ff       	callq  1030 <strncmp@plt>
    28be:	85 c0                	test   %eax,%eax
    28c0:	75 3b                	jne    28fd <main+0x183d>
    28c2:	f3 0f 10 44 24 08    	movss  0x8(%rsp),%xmm0
    28c8:	48 8d 35 11 81 00 00 	lea    0x8111(%rip),%rsi        # a9e0 <store256wrapper>
    28cf:	bf 00 2f 68 59       	mov    $0x59682f00,%edi
    28d4:	e8 67 81 00 00       	callq  aa40 <measureFunction>
    28d9:	bf 01 00 00 00       	mov    $0x1,%edi
    28de:	b8 01 00 00 00       	mov    $0x1,%eax
    28e3:	48 8d 35 f5 8a 00 00 	lea    0x8af5(%rip),%rsi        # b3df <_IO_stdin_used+0x3df>
    28ea:	f3 0f 5a c0          	cvtss2sd %xmm0,%xmm0
    28ee:	e8 8d e7 ff ff       	callq  1080 <__printf_chk@plt>
    28f3:	41 83 ec 01          	sub    $0x1,%r12d
    28f7:	7e 4d                	jle    2946 <main+0x1886>
    28f9:	4c 8b 6d 08          	mov    0x8(%rbp),%r13
    28fd:	ba 0f 00 00 00       	mov    $0xf,%edx
    2902:	48 8d 35 c6 8a 00 00 	lea    0x8ac6(%rip),%rsi        # b3cf <_IO_stdin_used+0x3cf>
    2909:	4c 89 ef             	mov    %r13,%rdi
    290c:	e8 1f e7 ff ff       	callq  1030 <strncmp@plt>
    2911:	85 c0                	test   %eax,%eax
    2913:	75 31                	jne    2946 <main+0x1886>
    2915:	48 8d 35 ff 5f 00 00 	lea    0x5fff(%rip),%rsi        # 891b <mixaddmul128int>
    291c:	f3 0f 10 44 24 08    	movss  0x8(%rsp),%xmm0
    2922:	bf 00 2f 68 59       	mov    $0x59682f00,%edi
    2927:	e8 14 81 00 00       	callq  aa40 <measureFunction>
    292c:	bf 01 00 00 00       	mov    $0x1,%edi
    2931:	b8 01 00 00 00       	mov    $0x1,%eax
    2936:	48 8d 35 db 90 00 00 	lea    0x90db(%rip),%rsi        # ba18 <_IO_stdin_used+0xa18>
    293d:	f3 0f 5a c0          	cvtss2sd %xmm0,%xmm0
    2941:	e8 3a e7 ff ff       	callq  1080 <__printf_chk@plt>
    2946:	48 8b 44 24 48       	mov    0x48(%rsp),%rax
    294b:	64 48 33 04 25 28 00 	xor    %fs:0x28,%rax
    2952:	00 00 
    2954:	0f 85 ce 3b 00 00    	jne    6528 <main+0x5468>
    295a:	48 83 c4 58          	add    $0x58,%rsp
    295e:	31 c0                	xor    %eax,%eax
    2960:	5b                   	pop    %rbx
    2961:	5d                   	pop    %rbp
    2962:	41 5c                	pop    %r12
    2964:	41 5d                	pop    %r13
    2966:	41 5e                	pop    %r14
    2968:	41 5f                	pop    %r15
    296a:	c3                   	retq   
    296b:	ba 05 00 00 00       	mov    $0x5,%edx
    2970:	48 8d 35 f7 8d 00 00 	lea    0x8df7(%rip),%rsi        # b76e <_IO_stdin_used+0x76e>
    2977:	4c 89 ef             	mov    %r13,%rdi
    297a:	e8 b1 e6 ff ff       	callq  1030 <strncmp@plt>
    297f:	85 c0                	test   %eax,%eax
    2981:	0f 84 34 3b 00 00    	je     64bb <main+0x53fb>
    2987:	f3 0f 10 35 f9 96 00 	movss  0x96f9(%rip),%xmm6        # c088 <_IO_stdin_used+0x1088>
    298e:	00 
    298f:	f3 0f 11 74 24 0c    	movss  %xmm6,0xc(%rsp)
    2995:	f3 0f 11 74 24 08    	movss  %xmm6,0x8(%rsp)
    299b:	ba 05 00 00 00       	mov    $0x5,%edx
    29a0:	48 8d 35 1e 88 00 00 	lea    0x881e(%rip),%rsi        # b1c5 <_IO_stdin_used+0x1c5>
    29a7:	4c 89 ef             	mov    %r13,%rdi
    29aa:	e8 81 e6 ff ff       	callq  1030 <strncmp@plt>
    29af:	85 c0                	test   %eax,%eax
    29b1:	0f 84 43 2f 00 00    	je     58fa <main+0x483a>
    29b7:	ba 03 00 00 00       	mov    $0x3,%edx
    29bc:	48 8d 35 4c 88 00 00 	lea    0x884c(%rip),%rsi        # b20f <_IO_stdin_used+0x20f>
    29c3:	4c 89 ef             	mov    %r13,%rdi
    29c6:	e8 65 e6 ff ff       	callq  1030 <strncmp@plt>
    29cb:	85 c0                	test   %eax,%eax
    29cd:	0f 84 e9 2e 00 00    	je     58bc <main+0x47fc>
    29d3:	48 8d 35 f1 87 00 00 	lea    0x87f1(%rip),%rsi        # b1cb <_IO_stdin_used+0x1cb>
    29da:	4c 89 ef             	mov    %r13,%rdi
    29dd:	e8 7e e6 ff ff       	callq  1060 <strcmp@plt>
    29e2:	85 c0                	test   %eax,%eax
    29e4:	0f 84 91 2e 00 00    	je     587b <main+0x47bb>
    29ea:	48 8d 35 e1 87 00 00 	lea    0x87e1(%rip),%rsi        # b1d2 <_IO_stdin_used+0x1d2>
    29f1:	4c 89 ef             	mov    %r13,%rdi
    29f4:	e8 67 e6 ff ff       	callq  1060 <strcmp@plt>
    29f9:	85 c0                	test   %eax,%eax
    29fb:	0f 84 3c 2e 00 00    	je     583d <main+0x477d>
    2a01:	ba 06 00 00 00       	mov    $0x6,%edx
    2a06:	48 8d 35 ce 87 00 00 	lea    0x87ce(%rip),%rsi        # b1db <_IO_stdin_used+0x1db>
    2a0d:	4c 89 ef             	mov    %r13,%rdi
    2a10:	e8 1b e6 ff ff       	callq  1030 <strncmp@plt>
    2a15:	85 c0                	test   %eax,%eax
    2a17:	0f 84 e2 2d 00 00    	je     57ff <main+0x473f>
    2a1d:	ba 08 00 00 00       	mov    $0x8,%edx
    2a22:	48 8d 35 b0 87 00 00 	lea    0x87b0(%rip),%rsi        # b1d9 <_IO_stdin_used+0x1d9>
    2a29:	4c 89 ef             	mov    %r13,%rdi
    2a2c:	e8 ff e5 ff ff       	callq  1030 <strncmp@plt>
    2a31:	85 c0                	test   %eax,%eax
    2a33:	0f 84 88 2d 00 00    	je     57c1 <main+0x4701>
    2a39:	ba 07 00 00 00       	mov    $0x7,%edx
    2a3e:	48 8d 35 9d 87 00 00 	lea    0x879d(%rip),%rsi        # b1e2 <_IO_stdin_used+0x1e2>
    2a45:	4c 89 ef             	mov    %r13,%rdi
    2a48:	e8 e3 e5 ff ff       	callq  1030 <strncmp@plt>
    2a4d:	85 c0                	test   %eax,%eax
    2a4f:	0f 84 2e 2d 00 00    	je     5783 <main+0x46c3>
    2a55:	ba 07 00 00 00       	mov    $0x7,%edx
    2a5a:	48 8d 35 89 87 00 00 	lea    0x8789(%rip),%rsi        # b1ea <_IO_stdin_used+0x1ea>
    2a61:	4c 89 ef             	mov    %r13,%rdi
    2a64:	e8 c7 e5 ff ff       	callq  1030 <strncmp@plt>
    2a69:	85 c0                	test   %eax,%eax
    2a6b:	0f 84 d4 2c 00 00    	je     5745 <main+0x4685>
    2a71:	ba 07 00 00 00       	mov    $0x7,%edx
    2a76:	48 8d 35 75 87 00 00 	lea    0x8775(%rip),%rsi        # b1f2 <_IO_stdin_used+0x1f2>
    2a7d:	4c 89 ef             	mov    %r13,%rdi
    2a80:	e8 ab e5 ff ff       	callq  1030 <strncmp@plt>
    2a85:	85 c0                	test   %eax,%eax
    2a87:	0f 84 7a 2c 00 00    	je     5707 <main+0x4647>
    2a8d:	ba 06 00 00 00       	mov    $0x6,%edx
    2a92:	48 8d 35 61 87 00 00 	lea    0x8761(%rip),%rsi        # b1fa <_IO_stdin_used+0x1fa>
    2a99:	4c 89 ef             	mov    %r13,%rdi
    2a9c:	e8 8f e5 ff ff       	callq  1030 <strncmp@plt>
    2aa1:	85 c0                	test   %eax,%eax
    2aa3:	0f 84 20 2c 00 00    	je     56c9 <main+0x4609>
    2aa9:	ba 06 00 00 00       	mov    $0x6,%edx
    2aae:	48 8d 35 4c 87 00 00 	lea    0x874c(%rip),%rsi        # b201 <_IO_stdin_used+0x201>
    2ab5:	4c 89 ef             	mov    %r13,%rdi
    2ab8:	e8 73 e5 ff ff       	callq  1030 <strncmp@plt>
    2abd:	85 c0                	test   %eax,%eax
    2abf:	0f 84 c6 2b 00 00    	je     568b <main+0x45cb>
    2ac5:	ba 06 00 00 00       	mov    $0x6,%edx
    2aca:	48 8d 35 96 8c 00 00 	lea    0x8c96(%rip),%rsi        # b767 <_IO_stdin_used+0x767>
    2ad1:	4c 89 ef             	mov    %r13,%rdi
    2ad4:	e8 57 e5 ff ff       	callq  1030 <strncmp@plt>
    2ad9:	85 c0                	test   %eax,%eax
    2adb:	0f 84 6c 2b 00 00    	je     564d <main+0x458d>
    2ae1:	ba 0a 00 00 00       	mov    $0xa,%edx
    2ae6:	48 8d 35 1b 87 00 00 	lea    0x871b(%rip),%rsi        # b208 <_IO_stdin_used+0x208>
    2aed:	4c 89 ef             	mov    %r13,%rdi
    2af0:	e8 3b e5 ff ff       	callq  1030 <strncmp@plt>
    2af5:	85 c0                	test   %eax,%eax
    2af7:	0f 84 12 2b 00 00    	je     560f <main+0x454f>
    2afd:	ba 06 00 00 00       	mov    $0x6,%edx
    2b02:	48 8d 35 0a 87 00 00 	lea    0x870a(%rip),%rsi        # b213 <_IO_stdin_used+0x213>
    2b09:	4c 89 ef             	mov    %r13,%rdi
    2b0c:	e8 1f e5 ff ff       	callq  1030 <strncmp@plt>
    2b11:	85 c0                	test   %eax,%eax
    2b13:	0f 84 b8 2a 00 00    	je     55d1 <main+0x4511>
    2b19:	ba 03 00 00 00       	mov    $0x3,%edx
    2b1e:	48 8d 35 f7 86 00 00 	lea    0x86f7(%rip),%rsi        # b21c <_IO_stdin_used+0x21c>
    2b25:	4c 89 ef             	mov    %r13,%rdi
    2b28:	e8 03 e5 ff ff       	callq  1030 <strncmp@plt>
    2b2d:	85 c0                	test   %eax,%eax
    2b2f:	0f 84 5e 2a 00 00    	je     5593 <main+0x44d3>
    2b35:	ba 05 00 00 00       	mov    $0x5,%edx
    2b3a:	48 8d 35 d9 86 00 00 	lea    0x86d9(%rip),%rsi        # b21a <_IO_stdin_used+0x21a>
    2b41:	4c 89 ef             	mov    %r13,%rdi
    2b44:	e8 e7 e4 ff ff       	callq  1030 <strncmp@plt>
    2b49:	85 c0                	test   %eax,%eax
    2b4b:	0f 84 04 2a 00 00    	je     5555 <main+0x4495>
    2b51:	ba 04 00 00 00       	mov    $0x4,%edx
    2b56:	48 8d 35 c3 86 00 00 	lea    0x86c3(%rip),%rsi        # b220 <_IO_stdin_used+0x220>
    2b5d:	4c 89 ef             	mov    %r13,%rdi
    2b60:	e8 cb e4 ff ff       	callq  1030 <strncmp@plt>
    2b65:	85 c0                	test   %eax,%eax
    2b67:	0f 84 aa 29 00 00    	je     5517 <main+0x4457>
    2b6d:	ba 04 00 00 00       	mov    $0x4,%edx
    2b72:	48 8d 35 ac 86 00 00 	lea    0x86ac(%rip),%rsi        # b225 <_IO_stdin_used+0x225>
    2b79:	4c 89 ef             	mov    %r13,%rdi
    2b7c:	e8 af e4 ff ff       	callq  1030 <strncmp@plt>
    2b81:	85 c0                	test   %eax,%eax
    2b83:	0f 84 50 29 00 00    	je     54d9 <main+0x4419>
    2b89:	ba 07 00 00 00       	mov    $0x7,%edx
    2b8e:	48 8d 35 95 86 00 00 	lea    0x8695(%rip),%rsi        # b22a <_IO_stdin_used+0x22a>
    2b95:	4c 89 ef             	mov    %r13,%rdi
    2b98:	e8 93 e4 ff ff       	callq  1030 <strncmp@plt>
    2b9d:	85 c0                	test   %eax,%eax
    2b9f:	0f 84 f6 28 00 00    	je     549b <main+0x43db>
    2ba5:	ba 03 00 00 00       	mov    $0x3,%edx
    2baa:	48 8d 35 8b 86 00 00 	lea    0x868b(%rip),%rsi        # b23c <_IO_stdin_used+0x23c>
    2bb1:	4c 89 ef             	mov    %r13,%rdi
    2bb4:	e8 77 e4 ff ff       	callq  1030 <strncmp@plt>
    2bb9:	85 c0                	test   %eax,%eax
    2bbb:	0f 84 9c 28 00 00    	je     545d <main+0x439d>
    2bc1:	ba 03 00 00 00       	mov    $0x3,%edx
    2bc6:	48 8d 35 65 86 00 00 	lea    0x8665(%rip),%rsi        # b232 <_IO_stdin_used+0x232>
    2bcd:	4c 89 ef             	mov    %r13,%rdi
    2bd0:	e8 5b e4 ff ff       	callq  1030 <strncmp@plt>
    2bd5:	85 c0                	test   %eax,%eax
    2bd7:	0f 84 42 28 00 00    	je     541f <main+0x435f>
    2bdd:	ba 09 00 00 00       	mov    $0x9,%edx
    2be2:	48 8d 35 4d 86 00 00 	lea    0x864d(%rip),%rsi        # b236 <_IO_stdin_used+0x236>
    2be9:	4c 89 ef             	mov    %r13,%rdi
    2bec:	e8 3f e4 ff ff       	callq  1030 <strncmp@plt>
    2bf1:	85 c0                	test   %eax,%eax
    2bf3:	0f 84 e8 27 00 00    	je     53e1 <main+0x4321>
    2bf9:	ba 03 00 00 00       	mov    $0x3,%edx
    2bfe:	48 8d 35 3b 86 00 00 	lea    0x863b(%rip),%rsi        # b240 <_IO_stdin_used+0x240>
    2c05:	4c 89 ef             	mov    %r13,%rdi
    2c08:	e8 23 e4 ff ff       	callq  1030 <strncmp@plt>
    2c0d:	85 c0                	test   %eax,%eax
    2c0f:	0f 84 8e 27 00 00    	je     53a3 <main+0x42e3>
    2c15:	ba 03 00 00 00       	mov    $0x3,%edx
    2c1a:	48 8d 35 2f 86 00 00 	lea    0x862f(%rip),%rsi        # b250 <_IO_stdin_used+0x250>
    2c21:	4c 89 ef             	mov    %r13,%rdi
    2c24:	e8 07 e4 ff ff       	callq  1030 <strncmp@plt>
    2c29:	85 c0                	test   %eax,%eax
    2c2b:	0f 84 34 27 00 00    	je     5365 <main+0x42a5>
    2c31:	ba 09 00 00 00       	mov    $0x9,%edx
    2c36:	48 8d 35 0d 86 00 00 	lea    0x860d(%rip),%rsi        # b24a <_IO_stdin_used+0x24a>
    2c3d:	4c 89 ef             	mov    %r13,%rdi
    2c40:	e8 eb e3 ff ff       	callq  1030 <strncmp@plt>
    2c45:	85 c0                	test   %eax,%eax
    2c47:	0f 84 da 26 00 00    	je     5327 <main+0x4267>
    2c4d:	ba 09 00 00 00       	mov    $0x9,%edx
    2c52:	48 8d 35 fb 85 00 00 	lea    0x85fb(%rip),%rsi        # b254 <_IO_stdin_used+0x254>
    2c59:	4c 89 ef             	mov    %r13,%rdi
    2c5c:	e8 cf e3 ff ff       	callq  1030 <strncmp@plt>
    2c61:	85 c0                	test   %eax,%eax
    2c63:	0f 84 80 26 00 00    	je     52e9 <main+0x4229>
    2c69:	ba 03 00 00 00       	mov    $0x3,%edx
    2c6e:	48 8d 35 ef 85 00 00 	lea    0x85ef(%rip),%rsi        # b264 <_IO_stdin_used+0x264>
    2c75:	4c 89 ef             	mov    %r13,%rdi
    2c78:	e8 b3 e3 ff ff       	callq  1030 <strncmp@plt>
    2c7d:	85 c0                	test   %eax,%eax
    2c7f:	0f 84 26 26 00 00    	je     52ab <main+0x41eb>
    2c85:	ba 09 00 00 00       	mov    $0x9,%edx
    2c8a:	48 8d 35 cd 85 00 00 	lea    0x85cd(%rip),%rsi        # b25e <_IO_stdin_used+0x25e>
    2c91:	4c 89 ef             	mov    %r13,%rdi
    2c94:	e8 97 e3 ff ff       	callq  1030 <strncmp@plt>
    2c99:	85 c0                	test   %eax,%eax
    2c9b:	0f 84 cc 25 00 00    	je     526d <main+0x41ad>
    2ca1:	ba 09 00 00 00       	mov    $0x9,%edx
    2ca6:	48 8d 35 cd 85 00 00 	lea    0x85cd(%rip),%rsi        # b27a <_IO_stdin_used+0x27a>
    2cad:	4c 89 ef             	mov    %r13,%rdi
    2cb0:	e8 7b e3 ff ff       	callq  1030 <strncmp@plt>
    2cb5:	85 c0                	test   %eax,%eax
    2cb7:	0f 84 72 25 00 00    	je     522f <main+0x416f>
    2cbd:	ba 0c 00 00 00       	mov    $0xc,%edx
    2cc2:	48 8d 35 9f 85 00 00 	lea    0x859f(%rip),%rsi        # b268 <_IO_stdin_used+0x268>
    2cc9:	4c 89 ef             	mov    %r13,%rdi
    2ccc:	e8 5f e3 ff ff       	callq  1030 <strncmp@plt>
    2cd1:	85 c0                	test   %eax,%eax
    2cd3:	0f 84 18 25 00 00    	je     51f1 <main+0x4131>
    2cd9:	ba 0e 00 00 00       	mov    $0xe,%edx
    2cde:	48 8d 35 90 85 00 00 	lea    0x8590(%rip),%rsi        # b275 <_IO_stdin_used+0x275>
    2ce5:	4c 89 ef             	mov    %r13,%rdi
    2ce8:	e8 43 e3 ff ff       	callq  1030 <strncmp@plt>
    2ced:	85 c0                	test   %eax,%eax
    2cef:	0f 84 be 24 00 00    	je     51b3 <main+0x40f3>
    2cf5:	ba 0e 00 00 00       	mov    $0xe,%edx
    2cfa:	48 8d 35 83 85 00 00 	lea    0x8583(%rip),%rsi        # b284 <_IO_stdin_used+0x284>
    2d01:	4c 89 ef             	mov    %r13,%rdi
    2d04:	e8 27 e3 ff ff       	callq  1030 <strncmp@plt>
    2d09:	85 c0                	test   %eax,%eax
    2d0b:	0f 84 64 24 00 00    	je     5175 <main+0x40b5>
    2d11:	ba 08 00 00 00       	mov    $0x8,%edx
    2d16:	48 8d 35 76 85 00 00 	lea    0x8576(%rip),%rsi        # b293 <_IO_stdin_used+0x293>
    2d1d:	4c 89 ef             	mov    %r13,%rdi
    2d20:	e8 0b e3 ff ff       	callq  1030 <strncmp@plt>
    2d25:	85 c0                	test   %eax,%eax
    2d27:	0f 84 0a 24 00 00    	je     5137 <main+0x4077>
    2d2d:	ba 0c 00 00 00       	mov    $0xc,%edx
    2d32:	48 8d 35 63 85 00 00 	lea    0x8563(%rip),%rsi        # b29c <_IO_stdin_used+0x29c>
    2d39:	4c 89 ef             	mov    %r13,%rdi
    2d3c:	e8 ef e2 ff ff       	callq  1030 <strncmp@plt>
    2d41:	85 c0                	test   %eax,%eax
    2d43:	0f 84 a2 23 00 00    	je     50eb <main+0x402b>
    2d49:	ba 0c 00 00 00       	mov    $0xc,%edx
    2d4e:	48 8d 35 54 85 00 00 	lea    0x8554(%rip),%rsi        # b2a9 <_IO_stdin_used+0x2a9>
    2d55:	4c 89 ef             	mov    %r13,%rdi
    2d58:	e8 d3 e2 ff ff       	callq  1030 <strncmp@plt>
    2d5d:	85 c0                	test   %eax,%eax
    2d5f:	0f 84 38 23 00 00    	je     509d <main+0x3fdd>
    2d65:	ba 0c 00 00 00       	mov    $0xc,%edx
    2d6a:	48 8d 35 45 85 00 00 	lea    0x8545(%rip),%rsi        # b2b6 <_IO_stdin_used+0x2b6>
    2d71:	4c 89 ef             	mov    %r13,%rdi
    2d74:	e8 b7 e2 ff ff       	callq  1030 <strncmp@plt>
    2d79:	85 c0                	test   %eax,%eax
    2d7b:	0f 84 d0 22 00 00    	je     5051 <main+0x3f91>
    2d81:	ba 0c 00 00 00       	mov    $0xc,%edx
    2d86:	48 8d 35 36 85 00 00 	lea    0x8536(%rip),%rsi        # b2c3 <_IO_stdin_used+0x2c3>
    2d8d:	4c 89 ef             	mov    %r13,%rdi
    2d90:	e8 9b e2 ff ff       	callq  1030 <strncmp@plt>
    2d95:	85 c0                	test   %eax,%eax
    2d97:	0f 84 66 22 00 00    	je     5003 <main+0x3f43>
    2d9d:	ba 0b 00 00 00       	mov    $0xb,%edx
    2da2:	48 8d 35 27 85 00 00 	lea    0x8527(%rip),%rsi        # b2d0 <_IO_stdin_used+0x2d0>
    2da9:	4c 89 ef             	mov    %r13,%rdi
    2dac:	e8 7f e2 ff ff       	callq  1030 <strncmp@plt>
    2db1:	85 c0                	test   %eax,%eax
    2db3:	0f 84 fc 21 00 00    	je     4fb5 <main+0x3ef5>
    2db9:	ba 0b 00 00 00       	mov    $0xb,%edx
    2dbe:	48 8d 35 17 85 00 00 	lea    0x8517(%rip),%rsi        # b2dc <_IO_stdin_used+0x2dc>
    2dc5:	4c 89 ef             	mov    %r13,%rdi
    2dc8:	e8 63 e2 ff ff       	callq  1030 <strncmp@plt>
    2dcd:	85 c0                	test   %eax,%eax
    2dcf:	0f 84 92 21 00 00    	je     4f67 <main+0x3ea7>
    2dd5:	ba 0b 00 00 00       	mov    $0xb,%edx
    2dda:	48 8d 35 07 85 00 00 	lea    0x8507(%rip),%rsi        # b2e8 <_IO_stdin_used+0x2e8>
    2de1:	4c 89 ef             	mov    %r13,%rdi
    2de4:	e8 47 e2 ff ff       	callq  1030 <strncmp@plt>
    2de9:	85 c0                	test   %eax,%eax
    2deb:	0f 84 28 21 00 00    	je     4f19 <main+0x3e59>
    2df1:	ba 0b 00 00 00       	mov    $0xb,%edx
    2df6:	48 8d 35 f7 84 00 00 	lea    0x84f7(%rip),%rsi        # b2f4 <_IO_stdin_used+0x2f4>
    2dfd:	4c 89 ef             	mov    %r13,%rdi
    2e00:	e8 2b e2 ff ff       	callq  1030 <strncmp@plt>
    2e05:	85 c0                	test   %eax,%eax
    2e07:	0f 84 be 20 00 00    	je     4ecb <main+0x3e0b>
    2e0d:	ba 08 00 00 00       	mov    $0x8,%edx
    2e12:	48 8d 35 d2 84 00 00 	lea    0x84d2(%rip),%rsi        # b2eb <_IO_stdin_used+0x2eb>
    2e19:	4c 89 ef             	mov    %r13,%rdi
    2e1c:	e8 0f e2 ff ff       	callq  1030 <strncmp@plt>
    2e21:	85 c0                	test   %eax,%eax
    2e23:	0f 84 64 20 00 00    	je     4e8d <main+0x3dcd>
    2e29:	ba 08 00 00 00       	mov    $0x8,%edx
    2e2e:	48 8d 35 c2 84 00 00 	lea    0x84c2(%rip),%rsi        # b2f7 <_IO_stdin_used+0x2f7>
    2e35:	4c 89 ef             	mov    %r13,%rdi
    2e38:	e8 f3 e1 ff ff       	callq  1030 <strncmp@plt>
    2e3d:	85 c0                	test   %eax,%eax
    2e3f:	0f 84 0a 20 00 00    	je     4e4f <main+0x3d8f>
    2e45:	ba 09 00 00 00       	mov    $0x9,%edx
    2e4a:	48 8d 35 68 84 00 00 	lea    0x8468(%rip),%rsi        # b2b9 <_IO_stdin_used+0x2b9>
    2e51:	4c 89 ef             	mov    %r13,%rdi
    2e54:	e8 d7 e1 ff ff       	callq  1030 <strncmp@plt>
    2e59:	85 c0                	test   %eax,%eax
    2e5b:	0f 84 b0 1f 00 00    	je     4e11 <main+0x3d51>
    2e61:	ba 09 00 00 00       	mov    $0x9,%edx
    2e66:	48 8d 35 68 85 00 00 	lea    0x8568(%rip),%rsi        # b3d5 <_IO_stdin_used+0x3d5>
    2e6d:	4c 89 ef             	mov    %r13,%rdi
    2e70:	e8 bb e1 ff ff       	callq  1030 <strncmp@plt>
    2e75:	85 c0                	test   %eax,%eax
    2e77:	0f 84 56 1f 00 00    	je     4dd3 <main+0x3d13>
    2e7d:	ba 06 00 00 00       	mov    $0x6,%edx
    2e82:	48 8d 35 7a 84 00 00 	lea    0x847a(%rip),%rsi        # b303 <_IO_stdin_used+0x303>
    2e89:	4c 89 ef             	mov    %r13,%rdi
    2e8c:	e8 9f e1 ff ff       	callq  1030 <strncmp@plt>
    2e91:	85 c0                	test   %eax,%eax
    2e93:	0f 84 fa 1e 00 00    	je     4d93 <main+0x3cd3>
    2e99:	ba 06 00 00 00       	mov    $0x6,%edx
    2e9e:	48 8d 35 0c 83 00 00 	lea    0x830c(%rip),%rsi        # b1b1 <_IO_stdin_used+0x1b1>
    2ea5:	4c 89 ef             	mov    %r13,%rdi
    2ea8:	e8 83 e1 ff ff       	callq  1030 <strncmp@plt>
    2ead:	85 c0                	test   %eax,%eax
    2eaf:	0f 84 9e 1e 00 00    	je     4d53 <main+0x3c93>
    2eb5:	ba 09 00 00 00       	mov    $0x9,%edx
    2eba:	48 8d 35 3f 84 00 00 	lea    0x843f(%rip),%rsi        # b300 <_IO_stdin_used+0x300>
    2ec1:	4c 89 ef             	mov    %r13,%rdi
    2ec4:	e8 67 e1 ff ff       	callq  1030 <strncmp@plt>
    2ec9:	85 c0                	test   %eax,%eax
    2ecb:	0f 84 34 1e 00 00    	je     4d05 <main+0x3c45>
    2ed1:	ba 09 00 00 00       	mov    $0x9,%edx
    2ed6:	48 8d 35 2d 84 00 00 	lea    0x842d(%rip),%rsi        # b30a <_IO_stdin_used+0x30a>
    2edd:	4c 89 ef             	mov    %r13,%rdi
    2ee0:	e8 4b e1 ff ff       	callq  1030 <strncmp@plt>
    2ee5:	85 c0                	test   %eax,%eax
    2ee7:	0f 84 ca 1d 00 00    	je     4cb7 <main+0x3bf7>
    2eed:	ba 06 00 00 00       	mov    $0x6,%edx
    2ef2:	48 8d 35 29 84 00 00 	lea    0x8429(%rip),%rsi        # b322 <_IO_stdin_used+0x322>
    2ef9:	4c 89 ef             	mov    %r13,%rdi
    2efc:	e8 2f e1 ff ff       	callq  1030 <strncmp@plt>
    2f01:	85 c0                	test   %eax,%eax
    2f03:	0f 84 6e 1d 00 00    	je     4c77 <main+0x3bb7>
    2f09:	ba 06 00 00 00       	mov    $0x6,%edx
    2f0e:	48 8d 35 ff 83 00 00 	lea    0x83ff(%rip),%rsi        # b314 <_IO_stdin_used+0x314>
    2f15:	4c 89 ef             	mov    %r13,%rdi
    2f18:	e8 13 e1 ff ff       	callq  1030 <strncmp@plt>
    2f1d:	85 c0                	test   %eax,%eax
    2f1f:	0f 84 12 1d 00 00    	je     4c37 <main+0x3b77>
    2f25:	ba 0c 00 00 00       	mov    $0xc,%edx
    2f2a:	48 8d 35 eb 83 00 00 	lea    0x83eb(%rip),%rsi        # b31c <_IO_stdin_used+0x31c>
    2f31:	4c 89 ef             	mov    %r13,%rdi
    2f34:	e8 f7 e0 ff ff       	callq  1030 <strncmp@plt>
    2f39:	85 c0                	test   %eax,%eax
    2f3b:	0f 84 b2 1c 00 00    	je     4bf3 <main+0x3b33>
    2f41:	ba 0b 00 00 00       	mov    $0xb,%edx
    2f46:	48 8d 35 dd 83 00 00 	lea    0x83dd(%rip),%rsi        # b32a <_IO_stdin_used+0x32a>
    2f4d:	4c 89 ef             	mov    %r13,%rdi
    2f50:	e8 db e0 ff ff       	callq  1030 <strncmp@plt>
    2f55:	85 c0                	test   %eax,%eax
    2f57:	0f 84 52 1c 00 00    	je     4baf <main+0x3aef>
    2f5d:	ba 0e 00 00 00       	mov    $0xe,%edx
    2f62:	48 8d 35 ce 83 00 00 	lea    0x83ce(%rip),%rsi        # b337 <_IO_stdin_used+0x337>
    2f69:	4c 89 ef             	mov    %r13,%rdi
    2f6c:	e8 bf e0 ff ff       	callq  1030 <strncmp@plt>
    2f71:	85 c0                	test   %eax,%eax
    2f73:	0f 84 f2 1b 00 00    	je     4b6b <main+0x3aab>
    2f79:	ba 0b 00 00 00       	mov    $0xb,%edx
    2f7e:	48 8d 35 c2 83 00 00 	lea    0x83c2(%rip),%rsi        # b347 <_IO_stdin_used+0x347>
    2f85:	4c 89 ef             	mov    %r13,%rdi
    2f88:	e8 a3 e0 ff ff       	callq  1030 <strncmp@plt>
    2f8d:	85 c0                	test   %eax,%eax
    2f8f:	0f 84 92 1b 00 00    	je     4b27 <main+0x3a67>
    2f95:	ba 0d 00 00 00       	mov    $0xd,%edx
    2f9a:	48 8d 35 76 81 00 00 	lea    0x8176(%rip),%rsi        # b117 <_IO_stdin_used+0x117>
    2fa1:	4c 89 ef             	mov    %r13,%rdi
    2fa4:	e8 87 e0 ff ff       	callq  1030 <strncmp@plt>
    2fa9:	85 c0                	test   %eax,%eax
    2fab:	0f 84 32 1b 00 00    	je     4ae3 <main+0x3a23>
    2fb1:	ba 0f 00 00 00       	mov    $0xf,%edx
    2fb6:	48 8d 35 97 83 00 00 	lea    0x8397(%rip),%rsi        # b354 <_IO_stdin_used+0x354>
    2fbd:	4c 89 ef             	mov    %r13,%rdi
    2fc0:	e8 6b e0 ff ff       	callq  1030 <strncmp@plt>
    2fc5:	85 c0                	test   %eax,%eax
    2fc7:	0f 84 d6 1a 00 00    	je     4aa3 <main+0x39e3>
    2fcd:	ba 08 00 00 00       	mov    $0x8,%edx
    2fd2:	48 8d 35 8c 83 00 00 	lea    0x838c(%rip),%rsi        # b365 <_IO_stdin_used+0x365>
    2fd9:	4c 89 ef             	mov    %r13,%rdi
    2fdc:	e8 4f e0 ff ff       	callq  1030 <strncmp@plt>
    2fe1:	85 c0                	test   %eax,%eax
    2fe3:	0f 84 6c 1a 00 00    	je     4a55 <main+0x3995>
    2fe9:	ba 08 00 00 00       	mov    $0x8,%edx
    2fee:	48 8d 35 79 83 00 00 	lea    0x8379(%rip),%rsi        # b36e <_IO_stdin_used+0x36e>
    2ff5:	4c 89 ef             	mov    %r13,%rdi
    2ff8:	e8 33 e0 ff ff       	callq  1030 <strncmp@plt>
    2ffd:	85 c0                	test   %eax,%eax
    2fff:	0f 84 02 1a 00 00    	je     4a07 <main+0x3947>
    3005:	ba 05 00 00 00       	mov    $0x5,%edx
    300a:	48 8d 35 57 83 00 00 	lea    0x8357(%rip),%rsi        # b368 <_IO_stdin_used+0x368>
    3011:	4c 89 ef             	mov    %r13,%rdi
    3014:	e8 17 e0 ff ff       	callq  1030 <strncmp@plt>
    3019:	85 c0                	test   %eax,%eax
    301b:	0f 84 a6 19 00 00    	je     49c7 <main+0x3907>
    3021:	ba 05 00 00 00       	mov    $0x5,%edx
    3026:	48 8d 35 62 83 00 00 	lea    0x8362(%rip),%rsi        # b38f <_IO_stdin_used+0x38f>
    302d:	4c 89 ef             	mov    %r13,%rdi
    3030:	e8 fb df ff ff       	callq  1030 <strncmp@plt>
    3035:	85 c0                	test   %eax,%eax
    3037:	0f 84 4a 19 00 00    	je     4987 <main+0x38c7>
    303d:	ba 05 00 00 00       	mov    $0x5,%edx
    3042:	48 8d 35 2e 83 00 00 	lea    0x832e(%rip),%rsi        # b377 <_IO_stdin_used+0x377>
    3049:	4c 89 ef             	mov    %r13,%rdi
    304c:	e8 df df ff ff       	callq  1030 <strncmp@plt>
    3051:	85 c0                	test   %eax,%eax
    3053:	0f 84 ee 18 00 00    	je     4947 <main+0x3887>
    3059:	ba 05 00 00 00       	mov    $0x5,%edx
    305e:	48 8d 35 20 83 00 00 	lea    0x8320(%rip),%rsi        # b385 <_IO_stdin_used+0x385>
    3065:	4c 89 ef             	mov    %r13,%rdi
    3068:	e8 c3 df ff ff       	callq  1030 <strncmp@plt>
    306d:	85 c0                	test   %eax,%eax
    306f:	0f 84 92 18 00 00    	je     4907 <main+0x3847>
    3075:	ba 07 00 00 00       	mov    $0x7,%edx
    307a:	48 8d 35 1a 83 00 00 	lea    0x831a(%rip),%rsi        # b39b <_IO_stdin_used+0x39b>
    3081:	4c 89 ef             	mov    %r13,%rdi
    3084:	e8 a7 df ff ff       	callq  1030 <strncmp@plt>
    3089:	85 c0                	test   %eax,%eax
    308b:	0f 84 36 18 00 00    	je     48c7 <main+0x3807>
    3091:	ba 0d 00 00 00       	mov    $0xd,%edx
    3096:	48 8d 35 f8 82 00 00 	lea    0x82f8(%rip),%rsi        # b395 <_IO_stdin_used+0x395>
    309d:	4c 89 ef             	mov    %r13,%rdi
    30a0:	e8 8b df ff ff       	callq  1030 <strncmp@plt>
    30a5:	85 c0                	test   %eax,%eax
    30a7:	0f 84 da 17 00 00    	je     4887 <main+0x37c7>
    30ad:	ba 07 00 00 00       	mov    $0x7,%edx
    30b2:	48 8d 35 ea 82 00 00 	lea    0x82ea(%rip),%rsi        # b3a3 <_IO_stdin_used+0x3a3>
    30b9:	4c 89 ef             	mov    %r13,%rdi
    30bc:	e8 6f df ff ff       	callq  1030 <strncmp@plt>
    30c1:	85 c0                	test   %eax,%eax
    30c3:	0f 84 7e 17 00 00    	je     4847 <main+0x3787>
    30c9:	ba 0d 00 00 00       	mov    $0xd,%edx
    30ce:	48 8d 35 d6 82 00 00 	lea    0x82d6(%rip),%rsi        # b3ab <_IO_stdin_used+0x3ab>
    30d5:	4c 89 ef             	mov    %r13,%rdi
    30d8:	e8 53 df ff ff       	callq  1030 <strncmp@plt>
    30dd:	85 c0                	test   %eax,%eax
    30df:	0f 84 22 17 00 00    	je     4807 <main+0x3747>
    30e5:	ba 07 00 00 00       	mov    $0x7,%edx
    30ea:	48 8d 35 cc 82 00 00 	lea    0x82cc(%rip),%rsi        # b3bd <_IO_stdin_used+0x3bd>
    30f1:	4c 89 ef             	mov    %r13,%rdi
    30f4:	e8 37 df ff ff       	callq  1030 <strncmp@plt>
    30f9:	85 c0                	test   %eax,%eax
    30fb:	0f 85 a9 f7 ff ff    	jne    28aa <main+0x17ea>
    3101:	f3 0f 10 44 24 08    	movss  0x8(%rsp),%xmm0
    3107:	48 8d 35 b2 78 00 00 	lea    0x78b2(%rip),%rsi        # a9c0 <store128wrapper>
    310e:	bf 00 2f 68 59       	mov    $0x59682f00,%edi
    3113:	e8 28 79 00 00       	callq  aa40 <measureFunction>
    3118:	bf 01 00 00 00       	mov    $0x1,%edi
    311d:	b8 01 00 00 00       	mov    $0x1,%eax
    3122:	48 8d 35 d4 82 00 00 	lea    0x82d4(%rip),%rsi        # b3fd <_IO_stdin_used+0x3fd>
    3129:	f3 0f 5a c0          	cvtss2sd %xmm0,%xmm0
    312d:	e8 4e df ff ff       	callq  1080 <__printf_chk@plt>
    3132:	41 83 fc 01          	cmp    $0x1,%r12d
    3136:	0f 8f 6a f7 ff ff    	jg     28a6 <main+0x17e6>
    313c:	e9 05 f8 ff ff       	jmpq   2946 <main+0x1886>
    3141:	48 8b 0d 98 af 00 00 	mov    0xaf98(%rip),%rcx        # e0e0 <stderr@@GLIBC_2.2.5>
    3148:	ba 11 00 00 00       	mov    $0x11,%edx
    314d:	be 01 00 00 00       	mov    $0x1,%esi
    3152:	48 8d 3d f2 7e 00 00 	lea    0x7ef2(%rip),%rdi        # b04b <_IO_stdin_used+0x4b>
    3159:	e8 32 df ff ff       	callq  1090 <fwrite@plt>
    315e:	41 83 fc 01          	cmp    $0x1,%r12d
    3162:	0f 84 48 33 00 00    	je     64b0 <main+0x53f0>
    3168:	f2 0f 10 05 10 8f 00 	movsd  0x8f10(%rip),%xmm0        # c080 <_IO_stdin_used+0x1080>
    316f:	00 
    3170:	bf 01 00 00 00       	mov    $0x1,%edi
    3175:	b8 01 00 00 00       	mov    $0x1,%eax
    317a:	48 8d 35 f7 85 00 00 	lea    0x85f7(%rip),%rsi        # b778 <_IO_stdin_used+0x778>
    3181:	e8 fa de ff ff       	callq  1080 <__printf_chk@plt>
    3186:	41 83 fc 01          	cmp    $0x1,%r12d
    318a:	0f 8e b6 f7 ff ff    	jle    2946 <main+0x1886>
    3190:	4c 8b 6d 08          	mov    0x8(%rbp),%r13
    3194:	ba 06 00 00 00       	mov    $0x6,%edx
    3199:	48 8d 35 70 7f 00 00 	lea    0x7f70(%rip),%rsi        # b110 <_IO_stdin_used+0x110>
    31a0:	4c 89 ef             	mov    %r13,%rdi
    31a3:	e8 88 de ff ff       	callq  1030 <strncmp@plt>
    31a8:	85 c0                	test   %eax,%eax
    31aa:	75 37                	jne    31e3 <main+0x2123>
    31ac:	48 8d 35 44 5a 00 00 	lea    0x5a44(%rip),%rsi        # 8bf7 <fma512>
    31b3:	f3 0f 10 05 cd 8e 00 	movss  0x8ecd(%rip),%xmm0        # c088 <_IO_stdin_used+0x1088>
    31ba:	00 
    31bb:	bf 00 2f 68 59       	mov    $0x59682f00,%edi
    31c0:	e8 7b 78 00 00       	callq  aa40 <measureFunction>
    31c5:	bf 01 00 00 00       	mov    $0x1,%edi
    31ca:	b8 01 00 00 00       	mov    $0x1,%eax
    31cf:	48 8d 35 87 7e 00 00 	lea    0x7e87(%rip),%rsi        # b05d <_IO_stdin_used+0x5d>
    31d6:	f3 0f 5a c0          	cvtss2sd %xmm0,%xmm0
    31da:	e8 a1 de ff ff       	callq  1080 <__printf_chk@plt>
    31df:	4c 8b 6d 08          	mov    0x8(%rbp),%r13
    31e3:	ba 09 00 00 00       	mov    $0x9,%edx
    31e8:	48 8d 35 0e 7f 00 00 	lea    0x7f0e(%rip),%rsi        # b0fd <_IO_stdin_used+0xfd>
    31ef:	4c 89 ef             	mov    %r13,%rdi
    31f2:	e8 39 de ff ff       	callq  1030 <strncmp@plt>
    31f7:	85 c0                	test   %eax,%eax
    31f9:	0f 84 63 15 00 00    	je     4762 <main+0x36a2>
    31ff:	ba 0f 00 00 00       	mov    $0xf,%edx
    3204:	48 8d 35 fc 7e 00 00 	lea    0x7efc(%rip),%rsi        # b107 <_IO_stdin_used+0x107>
    320b:	4c 89 ef             	mov    %r13,%rdi
    320e:	e8 1d de ff ff       	callq  1030 <strncmp@plt>
    3213:	85 c0                	test   %eax,%eax
    3215:	0f 85 01 32 00 00    	jne    641c <main+0x535c>
    321b:	48 8d 35 b6 5a 00 00 	lea    0x5ab6(%rip),%rsi        # 8cd8 <mixfma256fma512>
    3222:	f3 0f 10 05 5e 8e 00 	movss  0x8e5e(%rip),%xmm0        # c088 <_IO_stdin_used+0x1088>
    3229:	00 
    322a:	bf 00 2f 68 59       	mov    $0x59682f00,%edi
    322f:	e8 0c 78 00 00       	callq  aa40 <measureFunction>
    3234:	bf 01 00 00 00       	mov    $0x1,%edi
    3239:	b8 01 00 00 00       	mov    $0x1,%eax
    323e:	48 8d 35 83 85 00 00 	lea    0x8583(%rip),%rsi        # b7c8 <_IO_stdin_used+0x7c8>
    3245:	f3 0f 5a c0          	cvtss2sd %xmm0,%xmm0
    3249:	e8 32 de ff ff       	callq  1080 <__printf_chk@plt>
    324e:	41 83 fc 01          	cmp    $0x1,%r12d
    3252:	0f 8e ee f6 ff ff    	jle    2946 <main+0x1886>
    3258:	4c 8b 6d 08          	mov    0x8(%rbp),%r13
    325c:	ba 0d 00 00 00       	mov    $0xd,%edx
    3261:	48 8d 35 af 7e 00 00 	lea    0x7eaf(%rip),%rsi        # b117 <_IO_stdin_used+0x117>
    3268:	4c 89 ef             	mov    %r13,%rdi
    326b:	e8 c0 dd ff ff       	callq  1030 <strncmp@plt>
    3270:	85 c0                	test   %eax,%eax
    3272:	0f 85 4a 31 00 00    	jne    63c2 <main+0x5302>
    3278:	48 8d 35 4a 62 00 00 	lea    0x624a(%rip),%rsi        # 94c9 <nemesfpu512mix21>
    327f:	f3 0f 10 05 01 8e 00 	movss  0x8e01(%rip),%xmm0        # c088 <_IO_stdin_used+0x1088>
    3286:	00 
    3287:	bf 05 7a d7 03       	mov    $0x3d77a05,%edi
    328c:	48 c1 e7 09          	shl    $0x9,%rdi
    3290:	e8 ab 77 00 00       	callq  aa40 <measureFunction>
    3295:	bf 01 00 00 00       	mov    $0x1,%edi
    329a:	b8 01 00 00 00       	mov    $0x1,%eax
    329f:	48 8d 35 4a 85 00 00 	lea    0x854a(%rip),%rsi        # b7f0 <_IO_stdin_used+0x7f0>
    32a6:	f3 0f 5a c0          	cvtss2sd %xmm0,%xmm0
    32aa:	e8 d1 dd ff ff       	callq  1080 <__printf_chk@plt>
    32af:	4c 8b 6d 08          	mov    0x8(%rbp),%r13
    32b3:	ba 09 00 00 00       	mov    $0x9,%edx
    32b8:	48 8d 35 69 7e 00 00 	lea    0x7e69(%rip),%rsi        # b128 <_IO_stdin_used+0x128>
    32bf:	4c 89 ef             	mov    %r13,%rdi
    32c2:	e8 69 dd ff ff       	callq  1030 <strncmp@plt>
    32c7:	85 c0                	test   %eax,%eax
    32c9:	0f 85 8b 30 00 00    	jne    635a <main+0x529a>
    32cf:	48 8d 35 b7 47 00 00 	lea    0x47b7(%rip),%rsi        # 7a8d <add512int>
    32d6:	f3 0f 10 05 aa 8d 00 	movss  0x8daa(%rip),%xmm0        # c088 <_IO_stdin_used+0x1088>
    32dd:	00 
    32de:	bf 00 2f 68 59       	mov    $0x59682f00,%edi
    32e3:	e8 58 77 00 00       	callq  aa40 <measureFunction>
    32e8:	bf 01 00 00 00       	mov    $0x1,%edi
    32ed:	b8 01 00 00 00       	mov    $0x1,%eax
    32f2:	48 8d 35 27 85 00 00 	lea    0x8527(%rip),%rsi        # b820 <_IO_stdin_used+0x820>
    32f9:	f3 0f 5a c0          	cvtss2sd %xmm0,%xmm0
    32fd:	e8 7e dd ff ff       	callq  1080 <__printf_chk@plt>
    3302:	4c 8b 6d 08          	mov    0x8(%rbp),%r13
    3306:	ba 0c 00 00 00       	mov    $0xc,%edx
    330b:	48 8d 35 13 7e 00 00 	lea    0x7e13(%rip),%rsi        # b125 <_IO_stdin_used+0x125>
    3312:	4c 89 ef             	mov    %r13,%rdi
    3315:	e8 16 dd ff ff       	callq  1030 <strncmp@plt>
    331a:	85 c0                	test   %eax,%eax
    331c:	0f 85 de 2f 00 00    	jne    6300 <main+0x5240>
    3322:	48 8d 35 87 4b 00 00 	lea    0x4b87(%rip),%rsi        # 7eb0 <latadd256int>
    3329:	f3 0f 10 05 57 8d 00 	movss  0x8d57(%rip),%xmm0        # c088 <_IO_stdin_used+0x1088>
    3330:	00 
    3331:	4c 89 f7             	mov    %r14,%rdi
    3334:	e8 07 77 00 00       	callq  aa40 <measureFunction>
    3339:	bf 01 00 00 00       	mov    $0x1,%edi
    333e:	b8 01 00 00 00       	mov    $0x1,%eax
    3343:	f3 0f 10 0d 3d 8d 00 	movss  0x8d3d(%rip),%xmm1        # c088 <_IO_stdin_used+0x1088>
    334a:	00 
    334b:	48 8d 35 ee 84 00 00 	lea    0x84ee(%rip),%rsi        # b840 <_IO_stdin_used+0x840>
    3352:	f3 0f 5e c8          	divss  %xmm0,%xmm1
    3356:	66 0f ef c0          	pxor   %xmm0,%xmm0
    335a:	f3 0f 5a c1          	cvtss2sd %xmm1,%xmm0
    335e:	e8 1d dd ff ff       	callq  1080 <__printf_chk@plt>
    3363:	4c 8b 6d 08          	mov    0x8(%rbp),%r13
    3367:	ba 09 00 00 00       	mov    $0x9,%edx
    336c:	48 8d 35 d0 7d 00 00 	lea    0x7dd0(%rip),%rsi        # b143 <_IO_stdin_used+0x143>
    3373:	4c 89 ef             	mov    %r13,%rdi
    3376:	e8 b5 dc ff ff       	callq  1030 <strncmp@plt>
    337b:	85 c0                	test   %eax,%eax
    337d:	0f 85 1f 2f 00 00    	jne    62a2 <main+0x51e2>
    3383:	48 8d 35 87 45 00 00 	lea    0x4587(%rip),%rsi        # 7911 <mul512int>
    338a:	f3 0f 10 05 f6 8c 00 	movss  0x8cf6(%rip),%xmm0        # c088 <_IO_stdin_used+0x1088>
    3391:	00 
    3392:	bf 00 2f 68 59       	mov    $0x59682f00,%edi
    3397:	e8 a4 76 00 00       	callq  aa40 <measureFunction>
    339c:	bf 01 00 00 00       	mov    $0x1,%edi
    33a1:	b8 01 00 00 00       	mov    $0x1,%eax
    33a6:	48 8d 35 bb 84 00 00 	lea    0x84bb(%rip),%rsi        # b868 <_IO_stdin_used+0x868>
    33ad:	f3 0f 5a c0          	cvtss2sd %xmm0,%xmm0
    33b1:	e8 ca dc ff ff       	callq  1080 <__printf_chk@plt>
    33b6:	4c 8b 6d 08          	mov    0x8(%rbp),%r13
    33ba:	ba 09 00 00 00       	mov    $0x9,%edx
    33bf:	48 8d 35 8a 7d 00 00 	lea    0x7d8a(%rip),%rsi        # b150 <_IO_stdin_used+0x150>
    33c6:	4c 89 ef             	mov    %r13,%rdi
    33c9:	e8 62 dc ff ff       	callq  1030 <strncmp@plt>
    33ce:	85 c0                	test   %eax,%eax
    33d0:	0f 85 5a 2e 00 00    	jne    6230 <main+0x5170>
    33d6:	48 8d 35 f2 45 00 00 	lea    0x45f2(%rip),%rsi        # 79cf <muldq512int>
    33dd:	f3 0f 10 05 a3 8c 00 	movss  0x8ca3(%rip),%xmm0        # c088 <_IO_stdin_used+0x1088>
    33e4:	00 
    33e5:	bf 00 2f 68 59       	mov    $0x59682f00,%edi
    33ea:	e8 51 76 00 00       	callq  aa40 <measureFunction>
    33ef:	bf 01 00 00 00       	mov    $0x1,%edi
    33f4:	b8 01 00 00 00       	mov    $0x1,%eax
    33f9:	48 8d 35 90 84 00 00 	lea    0x8490(%rip),%rsi        # b890 <_IO_stdin_used+0x890>
    3400:	f3 0f 5a c0          	cvtss2sd %xmm0,%xmm0
    3404:	e8 77 dc ff ff       	callq  1080 <__printf_chk@plt>
    3409:	4c 8b 6d 08          	mov    0x8(%rbp),%r13
    340d:	ba 0d 00 00 00       	mov    $0xd,%edx
    3412:	48 8d 35 19 7d 00 00 	lea    0x7d19(%rip),%rsi        # b132 <_IO_stdin_used+0x132>
    3419:	4c 89 ef             	mov    %r13,%rdi
    341c:	e8 0f dc ff ff       	callq  1030 <strncmp@plt>
    3421:	85 c0                	test   %eax,%eax
    3423:	0f 85 99 2d 00 00    	jne    61c2 <main+0x5102>
    3429:	48 8d 35 99 4d 00 00 	lea    0x4d99(%rip),%rsi        # 81c9 <latmulq512int>
    3430:	f3 0f 10 05 50 8c 00 	movss  0x8c50(%rip),%xmm0        # c088 <_IO_stdin_used+0x1088>
    3437:	00 
    3438:	4c 89 f7             	mov    %r14,%rdi
    343b:	e8 00 76 00 00       	callq  aa40 <measureFunction>
    3440:	bf 01 00 00 00       	mov    $0x1,%edi
    3445:	b8 01 00 00 00       	mov    $0x1,%eax
    344a:	f3 0f 10 3d 36 8c 00 	movss  0x8c36(%rip),%xmm7        # c088 <_IO_stdin_used+0x1088>
    3451:	00 
    3452:	48 8d 35 67 84 00 00 	lea    0x8467(%rip),%rsi        # b8c0 <_IO_stdin_used+0x8c0>
    3459:	f3 0f 11 7c 24 0c    	movss  %xmm7,0xc(%rsp)
    345f:	f3 0f 5e f8          	divss  %xmm0,%xmm7
    3463:	66 0f ef c0          	pxor   %xmm0,%xmm0
    3467:	f3 0f 5a c7          	cvtss2sd %xmm7,%xmm0
    346b:	e8 10 dc ff ff       	callq  1080 <__printf_chk@plt>
    3470:	4c 8b 6d 08          	mov    0x8(%rbp),%r13
    3474:	ba 0c 00 00 00       	mov    $0xc,%edx
    3479:	48 8d 35 c0 7c 00 00 	lea    0x7cc0(%rip),%rsi        # b140 <_IO_stdin_used+0x140>
    3480:	4c 89 ef             	mov    %r13,%rdi
    3483:	e8 a8 db ff ff       	callq  1030 <strncmp@plt>
    3488:	85 c0                	test   %eax,%eax
    348a:	0f 85 ca 2c 00 00    	jne    615a <main+0x509a>
    3490:	48 8d 35 8e 4b 00 00 	lea    0x4b8e(%rip),%rsi        # 8025 <latmul512int>
    3497:	f3 0f 10 05 e9 8b 00 	movss  0x8be9(%rip),%xmm0        # c088 <_IO_stdin_used+0x1088>
    349e:	00 
    349f:	4c 89 f7             	mov    %r14,%rdi
    34a2:	e8 99 75 00 00       	callq  aa40 <measureFunction>
    34a7:	f3 0f 10 7c 24 0c    	movss  0xc(%rsp),%xmm7
    34ad:	bf 01 00 00 00       	mov    $0x1,%edi
    34b2:	48 8d 35 37 84 00 00 	lea    0x8437(%rip),%rsi        # b8f0 <_IO_stdin_used+0x8f0>
    34b9:	b8 01 00 00 00       	mov    $0x1,%eax
    34be:	f3 0f 5e f8          	divss  %xmm0,%xmm7
    34c2:	66 0f ef c0          	pxor   %xmm0,%xmm0
    34c6:	f3 0f 5a c7          	cvtss2sd %xmm7,%xmm0
    34ca:	e8 b1 db ff ff       	callq  1080 <__printf_chk@plt>
    34cf:	4c 8b 6d 08          	mov    0x8(%rbp),%r13
    34d3:	ba 0d 00 00 00       	mov    $0xd,%edx
    34d8:	48 8d 35 6e 7c 00 00 	lea    0x7c6e(%rip),%rsi        # b14d <_IO_stdin_used+0x14d>
    34df:	4c 89 ef             	mov    %r13,%rdi
    34e2:	e8 49 db ff ff       	callq  1030 <strncmp@plt>
    34e7:	85 c0                	test   %eax,%eax
    34e9:	0f 85 0d 2c 00 00    	jne    60fc <main+0x503c>
    34ef:	48 8d 35 01 4c 00 00 	lea    0x4c01(%rip),%rsi        # 80f7 <latmuldq512int>
    34f6:	f3 0f 10 05 8a 8b 00 	movss  0x8b8a(%rip),%xmm0        # c088 <_IO_stdin_used+0x1088>
    34fd:	00 
    34fe:	4c 89 f7             	mov    %r14,%rdi
    3501:	e8 3a 75 00 00       	callq  aa40 <measureFunction>
    3506:	f3 0f 10 74 24 0c    	movss  0xc(%rsp),%xmm6
    350c:	bf 01 00 00 00       	mov    $0x1,%edi
    3511:	48 8d 35 08 84 00 00 	lea    0x8408(%rip),%rsi        # b920 <_IO_stdin_used+0x920>
    3518:	b8 01 00 00 00       	mov    $0x1,%eax
    351d:	f3 0f 5e f0          	divss  %xmm0,%xmm6
    3521:	66 0f ef c0          	pxor   %xmm0,%xmm0
    3525:	f3 0f 5a c6          	cvtss2sd %xmm6,%xmm0
    3529:	e8 52 db ff ff       	callq  1080 <__printf_chk@plt>
    352e:	4c 8b 6d 08          	mov    0x8(%rbp),%r13
    3532:	ba 0b 00 00 00       	mov    $0xb,%edx
    3537:	48 8d 35 1e 7c 00 00 	lea    0x7c1e(%rip),%rsi        # b15c <_IO_stdin_used+0x15c>
    353e:	4c 89 ef             	mov    %r13,%rdi
    3541:	e8 ea da ff ff       	callq  1030 <strncmp@plt>
    3546:	85 c0                	test   %eax,%eax
    3548:	0f 85 50 2b 00 00    	jne    609e <main+0x4fde>
    354e:	48 8d 35 cd 5a 00 00 	lea    0x5acd(%rip),%rsi        # 9022 <mixfmaadd512>
    3555:	f3 0f 10 05 2b 8b 00 	movss  0x8b2b(%rip),%xmm0        # c088 <_IO_stdin_used+0x1088>
    355c:	00 
    355d:	bf 05 7a d7 03       	mov    $0x3d77a05,%edi
    3562:	48 c1 e7 09          	shl    $0x9,%rdi
    3566:	e8 d5 74 00 00       	callq  aa40 <measureFunction>
    356b:	bf 01 00 00 00       	mov    $0x1,%edi
    3570:	b8 01 00 00 00       	mov    $0x1,%eax
    3575:	48 8d 35 dc 83 00 00 	lea    0x83dc(%rip),%rsi        # b958 <_IO_stdin_used+0x958>
    357c:	f3 0f 5a c0          	cvtss2sd %xmm0,%xmm0
    3580:	e8 fb da ff ff       	callq  1080 <__printf_chk@plt>
    3585:	4c 8b 6d 08          	mov    0x8(%rbp),%r13
    3589:	ba 0b 00 00 00       	mov    $0xb,%edx
    358e:	48 8d 35 d4 7b 00 00 	lea    0x7bd4(%rip),%rsi        # b169 <_IO_stdin_used+0x169>
    3595:	4c 89 ef             	mov    %r13,%rdi
    3598:	e8 93 da ff ff       	callq  1030 <strncmp@plt>
    359d:	85 c0                	test   %eax,%eax
    359f:	0f 85 9f 2a 00 00    	jne    6044 <main+0x4f84>
    35a5:	48 8d 35 57 5b 00 00 	lea    0x5b57(%rip),%rsi        # 9103 <mixfma512add256>
    35ac:	f3 0f 10 05 d4 8a 00 	movss  0x8ad4(%rip),%xmm0        # c088 <_IO_stdin_used+0x1088>
    35b3:	00 
    35b4:	bf 05 7a d7 03       	mov    $0x3d77a05,%edi
    35b9:	48 c1 e7 09          	shl    $0x9,%rdi
    35bd:	e8 7e 74 00 00       	callq  aa40 <measureFunction>
    35c2:	bf 01 00 00 00       	mov    $0x1,%edi
    35c7:	b8 01 00 00 00       	mov    $0x1,%eax
    35cc:	48 8d 35 ad 83 00 00 	lea    0x83ad(%rip),%rsi        # b980 <_IO_stdin_used+0x980>
    35d3:	f3 0f 5a c0          	cvtss2sd %xmm0,%xmm0
    35d7:	e8 a4 da ff ff       	callq  1080 <__printf_chk@plt>
    35dc:	4c 8b 6d 08          	mov    0x8(%rbp),%r13
    35e0:	ba 07 00 00 00       	mov    $0x7,%edx
    35e5:	48 8d 35 8d 7b 00 00 	lea    0x7b8d(%rip),%rsi        # b179 <_IO_stdin_used+0x179>
    35ec:	4c 89 ef             	mov    %r13,%rdi
    35ef:	e8 3c da ff ff       	callq  1030 <strncmp@plt>
    35f4:	85 c0                	test   %eax,%eax
    35f6:	0f 85 ee 29 00 00    	jne    5fea <main+0x4f2a>
    35fc:	f3 0f 10 05 84 8a 00 	movss  0x8a84(%rip),%xmm0        # c088 <_IO_stdin_used+0x1088>
    3603:	00 
    3604:	48 8d 35 a5 73 00 00 	lea    0x73a5(%rip),%rsi        # a9b0 <load512wrapper>
    360b:	bf 00 2f 68 59       	mov    $0x59682f00,%edi
    3610:	e8 2b 74 00 00       	callq  aa40 <measureFunction>
    3615:	bf 01 00 00 00       	mov    $0x1,%edi
    361a:	b8 01 00 00 00       	mov    $0x1,%eax
    361f:	48 8d 35 52 7a 00 00 	lea    0x7a52(%rip),%rsi        # b078 <_IO_stdin_used+0x78>
    3626:	f3 0f 5a c0          	cvtss2sd %xmm0,%xmm0
    362a:	e8 51 da ff ff       	callq  1080 <__printf_chk@plt>
    362f:	4c 8b 6d 08          	mov    0x8(%rbp),%r13
    3633:	ba 07 00 00 00       	mov    $0x7,%edx
    3638:	48 8d 35 42 7b 00 00 	lea    0x7b42(%rip),%rsi        # b181 <_IO_stdin_used+0x181>
    363f:	4c 89 ef             	mov    %r13,%rdi
    3642:	e8 e9 d9 ff ff       	callq  1030 <strncmp@plt>
    3647:	85 c0                	test   %eax,%eax
    3649:	0f 85 41 29 00 00    	jne    5f90 <main+0x4ed0>
    364f:	f3 0f 10 05 31 8a 00 	movss  0x8a31(%rip),%xmm0        # c088 <_IO_stdin_used+0x1088>
    3656:	00 
    3657:	48 8d 35 a2 73 00 00 	lea    0x73a2(%rip),%rsi        # aa00 <store512wrapper>
    365e:	bf 00 2f 68 59       	mov    $0x59682f00,%edi
    3663:	e8 d8 73 00 00       	callq  aa40 <measureFunction>
    3668:	bf 01 00 00 00       	mov    $0x1,%edi
    366d:	b8 01 00 00 00       	mov    $0x1,%eax
    3672:	48 8d 35 1c 7a 00 00 	lea    0x7a1c(%rip),%rsi        # b095 <_IO_stdin_used+0x95>
    3679:	f3 0f 5a c0          	cvtss2sd %xmm0,%xmm0
    367d:	e8 fe d9 ff ff       	callq  1080 <__printf_chk@plt>
    3682:	4c 8b 6d 08          	mov    0x8(%rbp),%r13
    3686:	ba 09 00 00 00       	mov    $0x9,%edx
    368b:	48 8d 35 f8 7a 00 00 	lea    0x7af8(%rip),%rsi        # b18a <_IO_stdin_used+0x18a>
    3692:	4c 89 ef             	mov    %r13,%rdi
    3695:	e8 96 d9 ff ff       	callq  1030 <strncmp@plt>
    369a:	85 c0                	test   %eax,%eax
    369c:	0f 85 94 28 00 00    	jne    5f36 <main+0x4e76>
    36a2:	48 8d 35 76 4d 00 00 	lea    0x4d76(%rip),%rsi        # 841f <aesenc128>
    36a9:	f3 0f 10 05 d7 89 00 	movss  0x89d7(%rip),%xmm0        # c088 <_IO_stdin_used+0x1088>
    36b0:	00 
    36b1:	bf 00 2f 68 59       	mov    $0x59682f00,%edi
    36b6:	e8 85 73 00 00       	callq  aa40 <measureFunction>
    36bb:	bf 01 00 00 00       	mov    $0x1,%edi
    36c0:	b8 01 00 00 00       	mov    $0x1,%eax
    36c5:	48 8d 35 e7 79 00 00 	lea    0x79e7(%rip),%rsi        # b0b3 <_IO_stdin_used+0xb3>
    36cc:	f3 0f 5a c0          	cvtss2sd %xmm0,%xmm0
    36d0:	e8 ab d9 ff ff       	callq  1080 <__printf_chk@plt>
    36d5:	4c 8b 6d 08          	mov    0x8(%rbp),%r13
    36d9:	ba 09 00 00 00       	mov    $0x9,%edx
    36de:	48 8d 35 af 7a 00 00 	lea    0x7aaf(%rip),%rsi        # b194 <_IO_stdin_used+0x194>
    36e5:	4c 89 ef             	mov    %r13,%rdi
    36e8:	e8 43 d9 ff ff       	callq  1030 <strncmp@plt>
    36ed:	85 c0                	test   %eax,%eax
    36ef:	0f 85 e7 27 00 00    	jne    5edc <main+0x4e1c>
    36f5:	48 8d 35 87 50 00 00 	lea    0x5087(%rip),%rsi        # 8783 <aesdec128>
    36fc:	f3 0f 10 05 84 89 00 	movss  0x8984(%rip),%xmm0        # c088 <_IO_stdin_used+0x1088>
    3703:	00 
    3704:	bf 00 2f 68 59       	mov    $0x59682f00,%edi
    3709:	e8 32 73 00 00       	callq  aa40 <measureFunction>
    370e:	bf 01 00 00 00       	mov    $0x1,%edi
    3713:	b8 01 00 00 00       	mov    $0x1,%eax
    3718:	48 8d 35 aa 79 00 00 	lea    0x79aa(%rip),%rsi        # b0c9 <_IO_stdin_used+0xc9>
    371f:	f3 0f 5a c0          	cvtss2sd %xmm0,%xmm0
    3723:	e8 58 d9 ff ff       	callq  1080 <__printf_chk@plt>
    3728:	4c 8b 6d 08          	mov    0x8(%rbp),%r13
    372c:	ba 0c 00 00 00       	mov    $0xc,%edx
    3731:	48 8d 35 66 7a 00 00 	lea    0x7a66(%rip),%rsi        # b19e <_IO_stdin_used+0x19e>
    3738:	4c 89 ef             	mov    %r13,%rdi
    373b:	e8 f0 d8 ff ff       	callq  1030 <strncmp@plt>
    3740:	85 c0                	test   %eax,%eax
    3742:	0f 85 3a 27 00 00    	jne    5e82 <main+0x4dc2>
    3748:	48 8d 35 6a 4d 00 00 	lea    0x4d6a(%rip),%rsi        # 84b9 <aesencadd128>
    374f:	f3 0f 10 05 31 89 00 	movss  0x8931(%rip),%xmm0        # c088 <_IO_stdin_used+0x1088>
    3756:	00 
    3757:	bf 00 2f 68 59       	mov    $0x59682f00,%edi
    375c:	e8 df 72 00 00       	callq  aa40 <measureFunction>
    3761:	bf 01 00 00 00       	mov    $0x1,%edi
    3766:	b8 01 00 00 00       	mov    $0x1,%eax
    376b:	48 8d 35 3e 82 00 00 	lea    0x823e(%rip),%rsi        # b9b0 <_IO_stdin_used+0x9b0>
    3772:	f3 0f 5a c0          	cvtss2sd %xmm0,%xmm0
    3776:	e8 05 d9 ff ff       	callq  1080 <__printf_chk@plt>
    377b:	4c 8b 6d 08          	mov    0x8(%rbp),%r13
    377f:	ba 0c 00 00 00       	mov    $0xc,%edx
    3784:	48 8d 35 20 7a 00 00 	lea    0x7a20(%rip),%rsi        # b1ab <_IO_stdin_used+0x1ab>
    378b:	4c 89 ef             	mov    %r13,%rdi
    378e:	e8 9d d8 ff ff       	callq  1030 <strncmp@plt>
    3793:	85 c0                	test   %eax,%eax
    3795:	0f 85 89 26 00 00    	jne    5e24 <main+0x4d64>
    379b:	48 8d 35 d1 4d 00 00 	lea    0x4dd1(%rip),%rsi        # 8573 <aesencfma128>
    37a2:	f3 0f 10 05 de 88 00 	movss  0x88de(%rip),%xmm0        # c088 <_IO_stdin_used+0x1088>
    37a9:	00 
    37aa:	bf 00 2f 68 59       	mov    $0x59682f00,%edi
    37af:	e8 8c 72 00 00       	callq  aa40 <measureFunction>
    37b4:	bf 01 00 00 00       	mov    $0x1,%edi
    37b9:	b8 01 00 00 00       	mov    $0x1,%eax
    37be:	48 8d 35 1a 79 00 00 	lea    0x791a(%rip),%rsi        # b0df <_IO_stdin_used+0xdf>
    37c5:	f3 0f 5a c0          	cvtss2sd %xmm0,%xmm0
    37c9:	e8 b2 d8 ff ff       	callq  1080 <__printf_chk@plt>
    37ce:	4c 8b 6d 08          	mov    0x8(%rbp),%r13
    37d2:	ba 0c 00 00 00       	mov    $0xc,%edx
    37d7:	48 8d 35 da 79 00 00 	lea    0x79da(%rip),%rsi        # b1b8 <_IO_stdin_used+0x1b8>
    37de:	4c 89 ef             	mov    %r13,%rdi
    37e1:	e8 4a d8 ff ff       	callq  1030 <strncmp@plt>
    37e6:	85 c0                	test   %eax,%eax
    37e8:	0f 85 7d f1 ff ff    	jne    296b <main+0x18ab>
    37ee:	48 8d 35 f8 4e 00 00 	lea    0x4ef8(%rip),%rsi        # 86ed <aesencmul128>
    37f5:	f3 0f 10 05 8b 88 00 	movss  0x888b(%rip),%xmm0        # c088 <_IO_stdin_used+0x1088>
    37fc:	00 
    37fd:	bf 00 2f 68 59       	mov    $0x59682f00,%edi
    3802:	e8 39 72 00 00       	callq  aa40 <measureFunction>
    3807:	bf 01 00 00 00       	mov    $0x1,%edi
    380c:	b8 01 00 00 00       	mov    $0x1,%eax
    3811:	48 8d 35 b8 81 00 00 	lea    0x81b8(%rip),%rsi        # b9d0 <_IO_stdin_used+0x9d0>
    3818:	f3 0f 5a c0          	cvtss2sd %xmm0,%xmm0
    381c:	e8 5f d8 ff ff       	callq  1080 <__printf_chk@plt>
    3821:	4c 8b 6d 08          	mov    0x8(%rbp),%r13
    3825:	ba 0c 00 00 00       	mov    $0xc,%edx
    382a:	48 8d 35 87 79 00 00 	lea    0x7987(%rip),%rsi        # b1b8 <_IO_stdin_used+0x1b8>
    3831:	4c 89 ef             	mov    %r13,%rdi
    3834:	e8 f7 d7 ff ff       	callq  1030 <strncmp@plt>
    3839:	85 c0                	test   %eax,%eax
    383b:	0f 85 ce 2c 00 00    	jne    650f <main+0x544f>
    3841:	f3 0f 10 35 3f 88 00 	movss  0x883f(%rip),%xmm6        # c088 <_IO_stdin_used+0x1088>
    3848:	00 
    3849:	f3 0f 11 74 24 0c    	movss  %xmm6,0xc(%rsp)
    384f:	f3 0f 11 74 24 08    	movss  %xmm6,0x8(%rsp)
    3855:	48 8d 35 d8 4d 00 00 	lea    0x4dd8(%rip),%rsi        # 8634 <aesencfadd128>
    385c:	f3 0f 10 44 24 08    	movss  0x8(%rsp),%xmm0
    3862:	bf 00 2f 68 59       	mov    $0x59682f00,%edi
    3867:	e8 d4 71 00 00       	callq  aa40 <measureFunction>
    386c:	bf 01 00 00 00       	mov    $0x1,%edi
    3871:	b8 01 00 00 00       	mov    $0x1,%eax
    3876:	48 8d 35 7b 81 00 00 	lea    0x817b(%rip),%rsi        # b9f8 <_IO_stdin_used+0x9f8>
    387d:	f3 0f 5a c0          	cvtss2sd %xmm0,%xmm0
    3881:	e8 fa d7 ff ff       	callq  1080 <__printf_chk@plt>
    3886:	41 83 fc 01          	cmp    $0x1,%r12d
    388a:	0f 85 3e d9 ff ff    	jne    11ce <main+0x10e>
    3890:	48 8d 35 e1 34 00 00 	lea    0x34e1(%rip),%rsi        # 6d78 <noptest1b>
    3897:	f3 0f 10 44 24 08    	movss  0x8(%rsp),%xmm0
    389d:	4c 89 f7             	mov    %r14,%rdi
    38a0:	e8 9b 71 00 00       	callq  aa40 <measureFunction>
    38a5:	bf 01 00 00 00       	mov    $0x1,%edi
    38aa:	b8 01 00 00 00       	mov    $0x1,%eax
    38af:	48 8d 35 96 7e 00 00 	lea    0x7e96(%rip),%rsi        # b74c <_IO_stdin_used+0x74c>
    38b6:	f3 0f 5a c0          	cvtss2sd %xmm0,%xmm0
    38ba:	e8 c1 d7 ff ff       	callq  1080 <__printf_chk@plt>
    38bf:	48 8d 35 79 34 00 00 	lea    0x3479(%rip),%rsi        # 6d3f <noptest>
    38c6:	4c 89 f7             	mov    %r14,%rdi
    38c9:	f3 0f 10 44 24 08    	movss  0x8(%rsp),%xmm0
    38cf:	e8 6c 71 00 00       	callq  aa40 <measureFunction>
    38d4:	bf 01 00 00 00       	mov    $0x1,%edi
    38d9:	b8 01 00 00 00       	mov    $0x1,%eax
    38de:	48 8d 35 4c 7e 00 00 	lea    0x7e4c(%rip),%rsi        # b731 <_IO_stdin_used+0x731>
    38e5:	f3 0f 5a c0          	cvtss2sd %xmm0,%xmm0
    38e9:	e8 92 d7 ff ff       	callq  1080 <__printf_chk@plt>
    38ee:	48 8d 35 a9 34 00 00 	lea    0x34a9(%rip),%rsi        # 6d9e <addtest>
    38f5:	4c 89 f7             	mov    %r14,%rdi
    38f8:	f3 0f 10 44 24 08    	movss  0x8(%rsp),%xmm0
    38fe:	e8 3d 71 00 00       	callq  aa40 <measureFunction>
    3903:	bf 01 00 00 00       	mov    $0x1,%edi
    3908:	b8 01 00 00 00       	mov    $0x1,%eax
    390d:	48 8d 35 09 7e 00 00 	lea    0x7e09(%rip),%rsi        # b71d <_IO_stdin_used+0x71d>
    3914:	f3 0f 5a c0          	cvtss2sd %xmm0,%xmm0
    3918:	e8 63 d7 ff ff       	callq  1080 <__printf_chk@plt>
    391d:	48 8d 2d 06 35 00 00 	lea    0x3506(%rip),%rbp        # 6e2a <addnoptest>
    3924:	4c 89 f7             	mov    %r14,%rdi
    3927:	f3 0f 10 44 24 08    	movss  0x8(%rsp),%xmm0
    392d:	48 89 ee             	mov    %rbp,%rsi
    3930:	e8 0b 71 00 00       	callq  aa40 <measureFunction>
    3935:	bf 01 00 00 00       	mov    $0x1,%edi
    393a:	b8 01 00 00 00       	mov    $0x1,%eax
    393f:	48 8d 35 ba 7d 00 00 	lea    0x7dba(%rip),%rsi        # b700 <_IO_stdin_used+0x700>
    3946:	f3 0f 5a c0          	cvtss2sd %xmm0,%xmm0
    394a:	e8 31 d7 ff ff       	callq  1080 <__printf_chk@plt>
    394f:	48 89 ee             	mov    %rbp,%rsi
    3952:	4c 89 f7             	mov    %r14,%rdi
    3955:	f3 0f 10 44 24 08    	movss  0x8(%rsp),%xmm0
    395b:	e8 e0 70 00 00       	callq  aa40 <measureFunction>
    3960:	bf 01 00 00 00       	mov    $0x1,%edi
    3965:	b8 01 00 00 00       	mov    $0x1,%eax
    396a:	48 8d 35 72 7d 00 00 	lea    0x7d72(%rip),%rsi        # b6e3 <_IO_stdin_used+0x6e3>
    3971:	f3 0f 5a c0          	cvtss2sd %xmm0,%xmm0
    3975:	e8 06 d7 ff ff       	callq  1080 <__printf_chk@plt>
    397a:	48 8d 35 c6 6b 00 00 	lea    0x6bc6(%rip),%rsi        # a547 <depmovtest>
    3981:	4c 89 f7             	mov    %r14,%rdi
    3984:	f3 0f 10 44 24 08    	movss  0x8(%rsp),%xmm0
    398a:	e8 b1 70 00 00       	callq  aa40 <measureFunction>
    398f:	bf 01 00 00 00       	mov    $0x1,%edi
    3994:	b8 01 00 00 00       	mov    $0x1,%eax
    3999:	48 8d 35 25 7d 00 00 	lea    0x7d25(%rip),%rsi        # b6c5 <_IO_stdin_used+0x6c5>
    39a0:	f3 0f 5a c0          	cvtss2sd %xmm0,%xmm0
    39a4:	e8 d7 d6 ff ff       	callq  1080 <__printf_chk@plt>
    39a9:	48 8d 35 0c 6c 00 00 	lea    0x6c0c(%rip),%rsi        # a5bc <indepmovtest>
    39b0:	4c 89 f7             	mov    %r14,%rdi
    39b3:	f3 0f 10 44 24 08    	movss  0x8(%rsp),%xmm0
    39b9:	e8 82 70 00 00       	callq  aa40 <measureFunction>
    39be:	bf 01 00 00 00       	mov    $0x1,%edi
    39c3:	b8 01 00 00 00       	mov    $0x1,%eax
    39c8:	48 8d 35 59 86 00 00 	lea    0x8659(%rip),%rsi        # c028 <_IO_stdin_used+0x1028>
    39cf:	f3 0f 5a c0          	cvtss2sd %xmm0,%xmm0
    39d3:	e8 a8 d6 ff ff       	callq  1080 <__printf_chk@plt>
    39d8:	48 8d 35 1f 6d 00 00 	lea    0x6d1f(%rip),%rsi        # a6fe <xorzerotest>
    39df:	4c 89 f7             	mov    %r14,%rdi
    39e2:	f3 0f 10 44 24 08    	movss  0x8(%rsp),%xmm0
    39e8:	e8 53 70 00 00       	callq  aa40 <measureFunction>
    39ed:	bf 01 00 00 00       	mov    $0x1,%edi
    39f2:	b8 01 00 00 00       	mov    $0x1,%eax
    39f7:	48 8d 35 af 7c 00 00 	lea    0x7caf(%rip),%rsi        # b6ad <_IO_stdin_used+0x6ad>
    39fe:	f3 0f 5a c0          	cvtss2sd %xmm0,%xmm0
    3a02:	e8 79 d6 ff ff       	callq  1080 <__printf_chk@plt>
    3a07:	48 8d 35 25 6c 00 00 	lea    0x6c25(%rip),%rsi        # a633 <movzerotest>
    3a0e:	4c 89 f7             	mov    %r14,%rdi
    3a11:	f3 0f 10 44 24 08    	movss  0x8(%rsp),%xmm0
    3a17:	e8 24 70 00 00       	callq  aa40 <measureFunction>
    3a1c:	bf 01 00 00 00       	mov    $0x1,%edi
    3a21:	b8 01 00 00 00       	mov    $0x1,%eax
    3a26:	48 8d 35 68 7c 00 00 	lea    0x7c68(%rip),%rsi        # b695 <_IO_stdin_used+0x695>
    3a2d:	f3 0f 5a c0          	cvtss2sd %xmm0,%xmm0
    3a31:	e8 4a d6 ff ff       	callq  1080 <__printf_chk@plt>
    3a36:	48 8d 35 38 6d 00 00 	lea    0x6d38(%rip),%rsi        # a775 <subzerotest>
    3a3d:	4c 89 f7             	mov    %r14,%rdi
    3a40:	f3 0f 10 44 24 08    	movss  0x8(%rsp),%xmm0
    3a46:	e8 f5 6f 00 00       	callq  aa40 <measureFunction>
    3a4b:	bf 01 00 00 00       	mov    $0x1,%edi
    3a50:	b8 01 00 00 00       	mov    $0x1,%eax
    3a55:	48 8d 35 21 7c 00 00 	lea    0x7c21(%rip),%rsi        # b67d <_IO_stdin_used+0x67d>
    3a5c:	f3 0f 5a c0          	cvtss2sd %xmm0,%xmm0
    3a60:	e8 1b d6 ff ff       	callq  1080 <__printf_chk@plt>
    3a65:	48 8d 35 0b 6e 00 00 	lea    0x6e0b(%rip),%rsi        # a877 <depinctest>
    3a6c:	4c 89 f7             	mov    %r14,%rdi
    3a6f:	f3 0f 10 44 24 08    	movss  0x8(%rsp),%xmm0
    3a75:	e8 c6 6f 00 00       	callq  aa40 <measureFunction>
    3a7a:	bf 01 00 00 00       	mov    $0x1,%edi
    3a7f:	b8 01 00 00 00       	mov    $0x1,%eax
    3a84:	48 8d 35 db 7b 00 00 	lea    0x7bdb(%rip),%rsi        # b666 <_IO_stdin_used+0x666>
    3a8b:	f3 0f 5a c0          	cvtss2sd %xmm0,%xmm0
    3a8f:	e8 ec d5 ff ff       	callq  1080 <__printf_chk@plt>
    3a94:	48 8d 35 53 6e 00 00 	lea    0x6e53(%rip),%rsi        # a8ee <depdectest>
    3a9b:	4c 89 f7             	mov    %r14,%rdi
    3a9e:	f3 0f 10 44 24 08    	movss  0x8(%rsp),%xmm0
    3aa4:	e8 97 6f 00 00       	callq  aa40 <measureFunction>
    3aa9:	bf 01 00 00 00       	mov    $0x1,%edi
    3aae:	b8 01 00 00 00       	mov    $0x1,%eax
    3ab3:	48 8d 35 95 7b 00 00 	lea    0x7b95(%rip),%rsi        # b64f <_IO_stdin_used+0x64f>
    3aba:	f3 0f 5a c0          	cvtss2sd %xmm0,%xmm0
    3abe:	e8 bd d5 ff ff       	callq  1080 <__printf_chk@plt>
    3ac3:	48 8d 35 22 6d 00 00 	lea    0x6d22(%rip),%rsi        # a7ec <depaddimmtest>
    3aca:	4c 89 f7             	mov    %r14,%rdi
    3acd:	f3 0f 10 44 24 08    	movss  0x8(%rsp),%xmm0
    3ad3:	e8 68 6f 00 00       	callq  aa40 <measureFunction>
    3ad8:	bf 01 00 00 00       	mov    $0x1,%edi
    3add:	b8 01 00 00 00       	mov    $0x1,%eax
    3ae2:	48 8d 35 17 85 00 00 	lea    0x8517(%rip),%rsi        # c000 <_IO_stdin_used+0x1000>
    3ae9:	f3 0f 5a c0          	cvtss2sd %xmm0,%xmm0
    3aed:	e8 8e d5 ff ff       	callq  1080 <__printf_chk@plt>
    3af2:	48 8d 35 ad 31 00 00 	lea    0x31ad(%rip),%rsi        # 6ca6 <clkmovtest>
    3af9:	4c 89 f7             	mov    %r14,%rdi
    3afc:	f3 0f 10 44 24 08    	movss  0x8(%rsp),%xmm0
    3b02:	e8 39 6f 00 00       	callq  aa40 <measureFunction>
    3b07:	bf 01 00 00 00       	mov    $0x1,%edi
    3b0c:	b8 01 00 00 00       	mov    $0x1,%eax
    3b11:	48 8d 35 c0 84 00 00 	lea    0x84c0(%rip),%rsi        # bfd8 <_IO_stdin_used+0xfd8>
    3b18:	f3 0f 5a c0          	cvtss2sd %xmm0,%xmm0
    3b1c:	e8 5f d5 ff ff       	callq  1080 <__printf_chk@plt>
    3b21:	48 8d 35 7c 3c 00 00 	lea    0x3c7c(%rip),%rsi        # 77a4 <addmultest>
    3b28:	4c 89 f7             	mov    %r14,%rdi
    3b2b:	f3 0f 10 44 24 08    	movss  0x8(%rsp),%xmm0
    3b31:	e8 0a 6f 00 00       	callq  aa40 <measureFunction>
    3b36:	bf 01 00 00 00       	mov    $0x1,%edi
    3b3b:	b8 01 00 00 00       	mov    $0x1,%eax
    3b40:	48 8d 35 eb 7a 00 00 	lea    0x7aeb(%rip),%rsi        # b632 <_IO_stdin_used+0x632>
    3b47:	f3 0f 5a c0          	cvtss2sd %xmm0,%xmm0
    3b4b:	e8 30 d5 ff ff       	callq  1080 <__printf_chk@plt>
    3b50:	48 8d 35 90 3b 00 00 	lea    0x3b90(%rip),%rsi        # 76e7 <jmpmultest>
    3b57:	4c 89 f7             	mov    %r14,%rdi
    3b5a:	f3 0f 10 44 24 08    	movss  0x8(%rsp),%xmm0
    3b60:	e8 db 6e 00 00       	callq  aa40 <measureFunction>
    3b65:	bf 01 00 00 00       	mov    $0x1,%edi
    3b6a:	b8 01 00 00 00       	mov    $0x1,%eax
    3b6f:	48 8d 35 a1 7a 00 00 	lea    0x7aa1(%rip),%rsi        # b617 <_IO_stdin_used+0x617>
    3b76:	f3 0f 5a c0          	cvtss2sd %xmm0,%xmm0
    3b7a:	e8 01 d5 ff ff       	callq  1080 <__printf_chk@plt>
    3b7f:	48 8d 35 6b 39 00 00 	lea    0x396b(%rip),%rsi        # 74f1 <jmptest>
    3b86:	4c 89 f7             	mov    %r14,%rdi
    3b89:	f3 0f 10 44 24 08    	movss  0x8(%rsp),%xmm0
    3b8f:	e8 ac 6e 00 00       	callq  aa40 <measureFunction>
    3b94:	bf 01 00 00 00       	mov    $0x1,%edi
    3b99:	b8 01 00 00 00       	mov    $0x1,%eax
    3b9e:	48 8d 35 59 7a 00 00 	lea    0x7a59(%rip),%rsi        # b5fe <_IO_stdin_used+0x5fe>
    3ba5:	f3 0f 5a c0          	cvtss2sd %xmm0,%xmm0
    3ba9:	e8 d2 d4 ff ff       	callq  1080 <__printf_chk@plt>
    3bae:	48 8d 35 14 3a 00 00 	lea    0x3a14(%rip),%rsi        # 75c9 <ntjmptest>
    3bb5:	4c 89 f7             	mov    %r14,%rdi
    3bb8:	f3 0f 10 44 24 08    	movss  0x8(%rsp),%xmm0
    3bbe:	e8 7d 6e 00 00       	callq  aa40 <measureFunction>
    3bc3:	bf 01 00 00 00       	mov    $0x1,%edi
    3bc8:	b8 01 00 00 00       	mov    $0x1,%eax
    3bcd:	48 8d 35 14 7a 00 00 	lea    0x7a14(%rip),%rsi        # b5e8 <_IO_stdin_used+0x5e8>
    3bd4:	f3 0f 5a c0          	cvtss2sd %xmm0,%xmm0
    3bd8:	e8 a3 d4 ff ff       	callq  1080 <__printf_chk@plt>
    3bdd:	48 8d 35 4c 67 00 00 	lea    0x674c(%rip),%rsi        # a330 <pdeptest>
    3be4:	4c 89 f7             	mov    %r14,%rdi
    3be7:	f3 0f 10 44 24 08    	movss  0x8(%rsp),%xmm0
    3bed:	e8 4e 6e 00 00       	callq  aa40 <measureFunction>
    3bf2:	bf 01 00 00 00       	mov    $0x1,%edi
    3bf7:	b8 01 00 00 00       	mov    $0x1,%eax
    3bfc:	48 8d 35 d1 79 00 00 	lea    0x79d1(%rip),%rsi        # b5d4 <_IO_stdin_used+0x5d4>
    3c03:	f3 0f 5a c0          	cvtss2sd %xmm0,%xmm0
    3c07:	e8 74 d4 ff ff       	callq  1080 <__printf_chk@plt>
    3c0c:	48 8d 35 80 68 00 00 	lea    0x6880(%rip),%rsi        # a493 <pexttest>
    3c13:	4c 89 f7             	mov    %r14,%rdi
    3c16:	f3 0f 10 44 24 08    	movss  0x8(%rsp),%xmm0
    3c1c:	e8 1f 6e 00 00       	callq  aa40 <measureFunction>
    3c21:	bf 01 00 00 00       	mov    $0x1,%edi
    3c26:	b8 01 00 00 00       	mov    $0x1,%eax
    3c2b:	48 8d 35 8e 79 00 00 	lea    0x798e(%rip),%rsi        # b5c0 <_IO_stdin_used+0x5c0>
    3c32:	f3 0f 5a c0          	cvtss2sd %xmm0,%xmm0
    3c36:	e8 45 d4 ff ff       	callq  1080 <__printf_chk@plt>
    3c3b:	48 8d 35 a2 67 00 00 	lea    0x67a2(%rip),%rsi        # a3e4 <pdepmultest>
    3c42:	4c 89 f7             	mov    %r14,%rdi
    3c45:	f3 0f 10 44 24 08    	movss  0x8(%rsp),%xmm0
    3c4b:	e8 f0 6d 00 00       	callq  aa40 <measureFunction>
    3c50:	bf 01 00 00 00       	mov    $0x1,%edi
    3c55:	b8 01 00 00 00       	mov    $0x1,%eax
    3c5a:	48 8d 35 43 79 00 00 	lea    0x7943(%rip),%rsi        # b5a4 <_IO_stdin_used+0x5a4>
    3c61:	f3 0f 5a c0          	cvtss2sd %xmm0,%xmm0
    3c65:	e8 16 d4 ff ff       	callq  1080 <__printf_chk@plt>
    3c6a:	48 8d 35 55 33 00 00 	lea    0x3355(%rip),%rsi        # 6fc6 <shltest>
    3c71:	4c 89 f7             	mov    %r14,%rdi
    3c74:	f3 0f 10 44 24 08    	movss  0x8(%rsp),%xmm0
    3c7a:	e8 c1 6d 00 00       	callq  aa40 <measureFunction>
    3c7f:	bf 01 00 00 00       	mov    $0x1,%edi
    3c84:	b8 01 00 00 00       	mov    $0x1,%eax
    3c89:	48 8d 35 fd 78 00 00 	lea    0x78fd(%rip),%rsi        # b58d <_IO_stdin_used+0x58d>
    3c90:	f3 0f 5a c0          	cvtss2sd %xmm0,%xmm0
    3c94:	e8 e7 d3 ff ff       	callq  1080 <__printf_chk@plt>
    3c99:	48 8d 35 9a 32 00 00 	lea    0x329a(%rip),%rsi        # 6f3a <rortest>
    3ca0:	4c 89 f7             	mov    %r14,%rdi
    3ca3:	f3 0f 10 44 24 08    	movss  0x8(%rsp),%xmm0
    3ca9:	e8 92 6d 00 00       	callq  aa40 <measureFunction>
    3cae:	bf 01 00 00 00       	mov    $0x1,%edi
    3cb3:	b8 01 00 00 00       	mov    $0x1,%eax
    3cb8:	48 8d 35 b7 78 00 00 	lea    0x78b7(%rip),%rsi        # b576 <_IO_stdin_used+0x576>
    3cbf:	f3 0f 5a c0          	cvtss2sd %xmm0,%xmm0
    3cc3:	e8 b8 d3 ff ff       	callq  1080 <__printf_chk@plt>
    3cc8:	48 8d 35 83 33 00 00 	lea    0x3383(%rip),%rsi        # 7052 <mixrorshltest>
    3ccf:	4c 89 f7             	mov    %r14,%rdi
    3cd2:	f3 0f 10 44 24 08    	movss  0x8(%rsp),%xmm0
    3cd8:	e8 63 6d 00 00       	callq  aa40 <measureFunction>
    3cdd:	bf 01 00 00 00       	mov    $0x1,%edi
    3ce2:	b8 01 00 00 00       	mov    $0x1,%eax
    3ce7:	48 8d 35 ca 82 00 00 	lea    0x82ca(%rip),%rsi        # bfb8 <_IO_stdin_used+0xfb8>
    3cee:	f3 0f 5a c0          	cvtss2sd %xmm0,%xmm0
    3cf2:	e8 89 d3 ff ff       	callq  1080 <__printf_chk@plt>
    3cf7:	48 8d 35 e0 33 00 00 	lea    0x33e0(%rip),%rsi        # 70de <mixrormultest>
    3cfe:	4c 89 f7             	mov    %r14,%rdi
    3d01:	f3 0f 10 44 24 08    	movss  0x8(%rsp),%xmm0
    3d07:	e8 34 6d 00 00       	callq  aa40 <measureFunction>
    3d0c:	bf 01 00 00 00       	mov    $0x1,%edi
    3d11:	b8 01 00 00 00       	mov    $0x1,%eax
    3d16:	48 8d 35 3e 78 00 00 	lea    0x783e(%rip),%rsi        # b55b <_IO_stdin_used+0x55b>
    3d1d:	f3 0f 5a c0          	cvtss2sd %xmm0,%xmm0
    3d21:	e8 5a d3 ff ff       	callq  1080 <__printf_chk@plt>
    3d26:	48 8d 35 03 35 00 00 	lea    0x3503(%rip),%rsi        # 7230 <btstest>
    3d2d:	4c 89 f7             	mov    %r14,%rdi
    3d30:	f3 0f 10 44 24 08    	movss  0x8(%rsp),%xmm0
    3d36:	e8 05 6d 00 00       	callq  aa40 <measureFunction>
    3d3b:	bf 01 00 00 00       	mov    $0x1,%edi
    3d40:	b8 01 00 00 00       	mov    $0x1,%eax
    3d45:	48 8d 35 fc 77 00 00 	lea    0x77fc(%rip),%rsi        # b548 <_IO_stdin_used+0x548>
    3d4c:	f3 0f 5a c0          	cvtss2sd %xmm0,%xmm0
    3d50:	e8 2b d3 ff ff       	callq  1080 <__printf_chk@plt>
    3d55:	48 8d 35 cd 36 00 00 	lea    0x36cd(%rip),%rsi        # 7429 <btsmultest>
    3d5c:	4c 89 f7             	mov    %r14,%rdi
    3d5f:	f3 0f 10 44 24 08    	movss  0x8(%rsp),%xmm0
    3d65:	e8 d6 6c 00 00       	callq  aa40 <measureFunction>
    3d6a:	bf 01 00 00 00       	mov    $0x1,%edi
    3d6f:	b8 01 00 00 00       	mov    $0x1,%eax
    3d74:	48 8d 35 b2 77 00 00 	lea    0x77b2(%rip),%rsi        # b52d <_IO_stdin_used+0x52d>
    3d7b:	f3 0f 5a c0          	cvtss2sd %xmm0,%xmm0
    3d7f:	e8 fc d2 ff ff       	callq  1080 <__printf_chk@plt>
    3d84:	48 8d 35 08 34 00 00 	lea    0x3408(%rip),%rsi        # 7193 <rorbtstest>
    3d8b:	4c 89 f7             	mov    %r14,%rdi
    3d8e:	f3 0f 10 44 24 08    	movss  0x8(%rsp),%xmm0
    3d94:	e8 a7 6c 00 00       	callq  aa40 <measureFunction>
    3d99:	bf 01 00 00 00       	mov    $0x1,%edi
    3d9e:	b8 01 00 00 00       	mov    $0x1,%eax
    3da3:	48 8d 35 68 77 00 00 	lea    0x7768(%rip),%rsi        # b512 <_IO_stdin_used+0x512>
    3daa:	f3 0f 5a c0          	cvtss2sd %xmm0,%xmm0
    3dae:	e8 cd d2 ff ff       	callq  1080 <__printf_chk@plt>
    3db3:	48 8d 35 19 35 00 00 	lea    0x3519(%rip),%rsi        # 72d3 <leatest>
    3dba:	4c 89 f7             	mov    %r14,%rdi
    3dbd:	f3 0f 10 44 24 08    	movss  0x8(%rsp),%xmm0
    3dc3:	e8 78 6c 00 00       	callq  aa40 <measureFunction>
    3dc8:	bf 01 00 00 00       	mov    $0x1,%edi
    3dcd:	b8 01 00 00 00       	mov    $0x1,%eax
    3dd2:	48 8d 35 20 77 00 00 	lea    0x7720(%rip),%rsi        # b4f9 <_IO_stdin_used+0x4f9>
    3dd9:	f3 0f 5a c0          	cvtss2sd %xmm0,%xmm0
    3ddd:	e8 9e d2 ff ff       	callq  1080 <__printf_chk@plt>
    3de2:	48 8d 35 8d 35 00 00 	lea    0x358d(%rip),%rsi        # 7376 <leamultest>
    3de9:	4c 89 f7             	mov    %r14,%rdi
    3dec:	f3 0f 10 44 24 08    	movss  0x8(%rsp),%xmm0
    3df2:	e8 49 6c 00 00       	callq  aa40 <measureFunction>
    3df7:	bf 01 00 00 00       	mov    $0x1,%edi
    3dfc:	b8 01 00 00 00       	mov    $0x1,%eax
    3e01:	48 8d 35 88 81 00 00 	lea    0x8188(%rip),%rsi        # bf90 <_IO_stdin_used+0xf90>
    3e08:	f3 0f 5a c0          	cvtss2sd %xmm0,%xmm0
    3e0c:	e8 6f d2 ff ff       	callq  1080 <__printf_chk@plt>
    3e11:	48 8d 35 73 3a 00 00 	lea    0x3a73(%rip),%rsi        # 788b <add256int>
    3e18:	4c 89 f7             	mov    %r14,%rdi
    3e1b:	f3 0f 10 44 24 08    	movss  0x8(%rsp),%xmm0
    3e21:	e8 1a 6c 00 00       	callq  aa40 <measureFunction>
    3e26:	bf 01 00 00 00       	mov    $0x1,%edi
    3e2b:	b8 01 00 00 00       	mov    $0x1,%eax
    3e30:	48 8d 35 31 81 00 00 	lea    0x8131(%rip),%rsi        # bf68 <_IO_stdin_used+0xf68>
    3e37:	f3 0f 5a c0          	cvtss2sd %xmm0,%xmm0
    3e3b:	e8 40 d2 ff ff       	callq  1080 <__printf_chk@plt>
    3e40:	48 8d 35 fd 3e 00 00 	lea    0x3efd(%rip),%rsi        # 7d44 <mixadd256int>
    3e47:	4c 89 f7             	mov    %r14,%rdi
    3e4a:	f3 0f 10 44 24 08    	movss  0x8(%rsp),%xmm0
    3e50:	e8 eb 6b 00 00       	callq  aa40 <measureFunction>
    3e55:	bf 01 00 00 00       	mov    $0x1,%edi
    3e5a:	b8 01 00 00 00       	mov    $0x1,%eax
    3e5f:	48 8d 35 ca 80 00 00 	lea    0x80ca(%rip),%rsi        # bf30 <_IO_stdin_used+0xf30>
    3e66:	f3 0f 5a c0          	cvtss2sd %xmm0,%xmm0
    3e6a:	e8 11 d2 ff ff       	callq  1080 <__printf_chk@plt>
    3e6f:	48 8d 35 93 3f 00 00 	lea    0x3f93(%rip),%rsi        # 7e09 <mixadd256int11>
    3e76:	4c 89 f7             	mov    %r14,%rdi
    3e79:	f3 0f 10 44 24 08    	movss  0x8(%rsp),%xmm0
    3e7f:	e8 bc 6b 00 00       	callq  aa40 <measureFunction>
    3e84:	bf 01 00 00 00       	mov    $0x1,%edi
    3e89:	b8 01 00 00 00       	mov    $0x1,%eax
    3e8e:	48 8d 35 63 80 00 00 	lea    0x8063(%rip),%rsi        # bef8 <_IO_stdin_used+0xef8>
    3e95:	f3 0f 5a c0          	cvtss2sd %xmm0,%xmm0
    3e99:	e8 e2 d1 ff ff       	callq  1080 <__printf_chk@plt>
    3e9e:	48 8d 35 a6 3c 00 00 	lea    0x3ca6(%rip),%rsi        # 7b4b <mixadd256fpint>
    3ea5:	4c 89 f7             	mov    %r14,%rdi
    3ea8:	f3 0f 10 44 24 08    	movss  0x8(%rsp),%xmm0
    3eae:	e8 8d 6b 00 00       	callq  aa40 <measureFunction>
    3eb3:	bf 01 00 00 00       	mov    $0x1,%edi
    3eb8:	b8 01 00 00 00       	mov    $0x1,%eax
    3ebd:	48 8d 35 04 80 00 00 	lea    0x8004(%rip),%rsi        # bec8 <_IO_stdin_used+0xec8>
    3ec4:	f3 0f 5a c0          	cvtss2sd %xmm0,%xmm0
    3ec8:	e8 b3 d1 ff ff       	callq  1080 <__printf_chk@plt>
    3ecd:	48 8d 35 cc 3d 00 00 	lea    0x3dcc(%rip),%rsi        # 7ca0 <mix256fp>
    3ed4:	4c 89 f7             	mov    %r14,%rdi
    3ed7:	f3 0f 10 44 24 08    	movss  0x8(%rsp),%xmm0
    3edd:	e8 5e 6b 00 00       	callq  aa40 <measureFunction>
    3ee2:	bf 01 00 00 00       	mov    $0x1,%edi
    3ee7:	b8 01 00 00 00       	mov    $0x1,%eax
    3eec:	48 8d 35 a5 7f 00 00 	lea    0x7fa5(%rip),%rsi        # be98 <_IO_stdin_used+0xe98>
    3ef3:	f3 0f 5a c0          	cvtss2sd %xmm0,%xmm0
    3ef7:	e8 84 d1 ff ff       	callq  1080 <__printf_chk@plt>
    3efc:	48 8d 35 ad 3f 00 00 	lea    0x3fad(%rip),%rsi        # 7eb0 <latadd256int>
    3f03:	4c 89 f7             	mov    %r14,%rdi
    3f06:	f3 0f 10 44 24 08    	movss  0x8(%rsp),%xmm0
    3f0c:	e8 2f 6b 00 00       	callq  aa40 <measureFunction>
    3f11:	f3 0f 10 6c 24 0c    	movss  0xc(%rsp),%xmm5
    3f17:	bf 01 00 00 00       	mov    $0x1,%edi
    3f1c:	48 8d 35 45 7f 00 00 	lea    0x7f45(%rip),%rsi        # be68 <_IO_stdin_used+0xe68>
    3f23:	b8 01 00 00 00       	mov    $0x1,%eax
    3f28:	f3 0f 5e e8          	divss  %xmm0,%xmm5
    3f2c:	66 0f ef c0          	pxor   %xmm0,%xmm0
    3f30:	f3 0f 5a c5          	cvtss2sd %xmm5,%xmm0
    3f34:	e8 47 d1 ff ff       	callq  1080 <__printf_chk@plt>
    3f39:	48 8d 35 5b 43 00 00 	lea    0x435b(%rip),%rsi        # 829b <latmul256int>
    3f40:	f3 0f 10 44 24 08    	movss  0x8(%rsp),%xmm0
    3f46:	bf 00 2f 68 59       	mov    $0x59682f00,%edi
    3f4b:	e8 f0 6a 00 00       	callq  aa40 <measureFunction>
    3f50:	f3 0f 10 74 24 0c    	movss  0xc(%rsp),%xmm6
    3f56:	bf 01 00 00 00       	mov    $0x1,%edi
    3f5b:	48 8d 35 ce 7e 00 00 	lea    0x7ece(%rip),%rsi        # be30 <_IO_stdin_used+0xe30>
    3f62:	b8 01 00 00 00       	mov    $0x1,%eax
    3f67:	f3 0f 5e f0          	divss  %xmm0,%xmm6
    3f6b:	66 0f ef c0          	pxor   %xmm0,%xmm0
    3f6f:	f3 0f 5a c6          	cvtss2sd %xmm6,%xmm0
    3f73:	e8 08 d1 ff ff       	callq  1080 <__printf_chk@plt>
    3f78:	48 8d 35 ca 43 00 00 	lea    0x43ca(%rip),%rsi        # 8349 <latadd128int>
    3f7f:	4c 89 f7             	mov    %r14,%rdi
    3f82:	f3 0f 10 44 24 08    	movss  0x8(%rsp),%xmm0
    3f88:	e8 b3 6a 00 00       	callq  aa40 <measureFunction>
    3f8d:	f3 0f 10 7c 24 0c    	movss  0xc(%rsp),%xmm7
    3f93:	bf 01 00 00 00       	mov    $0x1,%edi
    3f98:	48 8d 35 61 7e 00 00 	lea    0x7e61(%rip),%rsi        # be00 <_IO_stdin_used+0xe00>
    3f9f:	b8 01 00 00 00       	mov    $0x1,%eax
    3fa4:	f3 0f 5e f8          	divss  %xmm0,%xmm7
    3fa8:	66 0f ef c0          	pxor   %xmm0,%xmm0
    3fac:	f3 0f 5a c7          	cvtss2sd %xmm7,%xmm0
    3fb0:	e8 cb d0 ff ff       	callq  1080 <__printf_chk@plt>
    3fb5:	48 8d 35 e0 48 00 00 	lea    0x48e0(%rip),%rsi        # 889c <latmul128int>
    3fbc:	f3 0f 10 44 24 08    	movss  0x8(%rsp),%xmm0
    3fc2:	bf 00 2f 68 59       	mov    $0x59682f00,%edi
    3fc7:	e8 74 6a 00 00       	callq  aa40 <measureFunction>
    3fcc:	f3 0f 10 6c 24 0c    	movss  0xc(%rsp),%xmm5
    3fd2:	bf 01 00 00 00       	mov    $0x1,%edi
    3fd7:	48 8d 35 ea 7d 00 00 	lea    0x7dea(%rip),%rsi        # bdc8 <_IO_stdin_used+0xdc8>
    3fde:	b8 01 00 00 00       	mov    $0x1,%eax
    3fe3:	f3 0f 5e e8          	divss  %xmm0,%xmm5
    3fe7:	66 0f ef c0          	pxor   %xmm0,%xmm0
    3feb:	f3 0f 5a c5          	cvtss2sd %xmm5,%xmm0
    3fef:	e8 8c d0 ff ff       	callq  1080 <__printf_chk@plt>
    3ff4:	48 8d 35 c6 49 00 00 	lea    0x49c6(%rip),%rsi        # 89c1 <latadd256fp>
    3ffb:	f3 0f 10 44 24 08    	movss  0x8(%rsp),%xmm0
    4001:	bf 00 2f 68 59       	mov    $0x59682f00,%edi
    4006:	e8 35 6a 00 00       	callq  aa40 <measureFunction>
    400b:	f3 0f 10 7c 24 0c    	movss  0xc(%rsp),%xmm7
    4011:	bf 01 00 00 00       	mov    $0x1,%edi
    4016:	48 8d 35 83 7d 00 00 	lea    0x7d83(%rip),%rsi        # bda0 <_IO_stdin_used+0xda0>
    401d:	b8 01 00 00 00       	mov    $0x1,%eax
    4022:	f3 0f 5e f8          	divss  %xmm0,%xmm7
    4026:	66 0f ef c0          	pxor   %xmm0,%xmm0
    402a:	f3 0f 5a c7          	cvtss2sd %xmm7,%xmm0
    402e:	e8 4d d0 ff ff       	callq  1080 <__printf_chk@plt>
    4033:	48 8d 35 41 4b 00 00 	lea    0x4b41(%rip),%rsi        # 8b7b <latmul256fp>
    403a:	f3 0f 10 44 24 08    	movss  0x8(%rsp),%xmm0
    4040:	bf 00 2f 68 59       	mov    $0x59682f00,%edi
    4045:	e8 f6 69 00 00       	callq  aa40 <measureFunction>
    404a:	f3 0f 10 74 24 0c    	movss  0xc(%rsp),%xmm6
    4050:	bf 01 00 00 00       	mov    $0x1,%edi
    4055:	48 8d 35 1c 7d 00 00 	lea    0x7d1c(%rip),%rsi        # bd78 <_IO_stdin_used+0xd78>
    405c:	b8 01 00 00 00       	mov    $0x1,%eax
    4061:	f3 0f 5e f0          	divss  %xmm0,%xmm6
    4065:	66 0f ef c0          	pxor   %xmm0,%xmm0
    4069:	f3 0f 5a c6          	cvtss2sd %xmm6,%xmm0
    406d:	e8 0e d0 ff ff       	callq  1080 <__printf_chk@plt>
    4072:	48 8d 35 13 58 00 00 	lea    0x5813(%rip),%rsi        # 988c <latadd128fp>
    4079:	f3 0f 10 44 24 08    	movss  0x8(%rsp),%xmm0
    407f:	bf 00 2f 68 59       	mov    $0x59682f00,%edi
    4084:	e8 b7 69 00 00       	callq  aa40 <measureFunction>
    4089:	f3 0f 10 6c 24 0c    	movss  0xc(%rsp),%xmm5
    408f:	bf 01 00 00 00       	mov    $0x1,%edi
    4094:	48 8d 35 b5 7c 00 00 	lea    0x7cb5(%rip),%rsi        # bd50 <_IO_stdin_used+0xd50>
    409b:	b8 01 00 00 00       	mov    $0x1,%eax
    40a0:	f3 0f 5e e8          	divss  %xmm0,%xmm5
    40a4:	66 0f ef c0          	pxor   %xmm0,%xmm0
    40a8:	f3 0f 5a c5          	cvtss2sd %xmm5,%xmm0
    40ac:	e8 cf cf ff ff       	callq  1080 <__printf_chk@plt>
    40b1:	48 8d 35 34 58 00 00 	lea    0x5834(%rip),%rsi        # 98ec <latmul128fp>
    40b8:	f3 0f 10 44 24 08    	movss  0x8(%rsp),%xmm0
    40be:	bf 00 2f 68 59       	mov    $0x59682f00,%edi
    40c3:	e8 78 69 00 00       	callq  aa40 <measureFunction>
    40c8:	f3 0f 10 74 24 0c    	movss  0xc(%rsp),%xmm6
    40ce:	bf 01 00 00 00       	mov    $0x1,%edi
    40d3:	48 8d 35 4e 7c 00 00 	lea    0x7c4e(%rip),%rsi        # bd28 <_IO_stdin_used+0xd28>
    40da:	b8 01 00 00 00       	mov    $0x1,%eax
    40df:	f3 0f 5e f0          	divss  %xmm0,%xmm6
    40e3:	66 0f ef c0          	pxor   %xmm0,%xmm0
    40e7:	f3 0f 5a c6          	cvtss2sd %xmm6,%xmm0
    40eb:	e8 90 cf ff ff       	callq  1080 <__printf_chk@plt>
    40f0:	48 8d 35 c4 58 00 00 	lea    0x58c4(%rip),%rsi        # 99bb <add128fp>
    40f7:	4c 89 f7             	mov    %r14,%rdi
    40fa:	f3 0f 10 44 24 08    	movss  0x8(%rsp),%xmm0
    4100:	e8 3b 69 00 00       	callq  aa40 <measureFunction>
    4105:	bf 01 00 00 00       	mov    $0x1,%edi
    410a:	b8 01 00 00 00       	mov    $0x1,%eax
    410f:	48 8d 35 f2 7b 00 00 	lea    0x7bf2(%rip),%rsi        # bd08 <_IO_stdin_used+0xd08>
    4116:	f3 0f 5a c0          	cvtss2sd %xmm0,%xmm0
    411a:	e8 61 cf ff ff       	callq  1080 <__printf_chk@plt>
    411f:	48 8d 35 26 58 00 00 	lea    0x5826(%rip),%rsi        # 994c <mul128fp>
    4126:	4c 89 f7             	mov    %r14,%rdi
    4129:	f3 0f 10 44 24 08    	movss  0x8(%rsp),%xmm0
    412f:	e8 0c 69 00 00       	callq  aa40 <measureFunction>
    4134:	bf 01 00 00 00       	mov    $0x1,%edi
    4139:	b8 01 00 00 00       	mov    $0x1,%eax
    413e:	48 8d 35 a3 7b 00 00 	lea    0x7ba3(%rip),%rsi        # bce8 <_IO_stdin_used+0xce8>
    4145:	f3 0f 5a c0          	cvtss2sd %xmm0,%xmm0
    4149:	e8 32 cf ff ff       	callq  1080 <__printf_chk@plt>
    414e:	48 8d 35 5f 42 00 00 	lea    0x425f(%rip),%rsi        # 83b4 <add128int>
    4155:	4c 89 f7             	mov    %r14,%rdi
    4158:	f3 0f 10 44 24 08    	movss  0x8(%rsp),%xmm0
    415e:	e8 dd 68 00 00       	callq  aa40 <measureFunction>
    4163:	bf 01 00 00 00       	mov    $0x1,%edi
    4168:	b8 01 00 00 00       	mov    $0x1,%eax
    416d:	48 8d 35 4c 7b 00 00 	lea    0x7b4c(%rip),%rsi        # bcc0 <_IO_stdin_used+0xcc0>
    4174:	f3 0f 5a c0          	cvtss2sd %xmm0,%xmm0
    4178:	e8 03 cf ff ff       	callq  1080 <__printf_chk@plt>
    417d:	48 8d 35 99 46 00 00 	lea    0x4699(%rip),%rsi        # 881d <mul128int>
    4184:	4c 89 f7             	mov    %r14,%rdi
    4187:	f3 0f 10 44 24 08    	movss  0x8(%rsp),%xmm0
    418d:	e8 ae 68 00 00       	callq  aa40 <measureFunction>
    4192:	bf 01 00 00 00       	mov    $0x1,%edi
    4197:	b8 01 00 00 00       	mov    $0x1,%eax
    419c:	48 8d 35 f5 7a 00 00 	lea    0x7af5(%rip),%rsi        # bc98 <_IO_stdin_used+0xc98>
    41a3:	f3 0f 5a c0          	cvtss2sd %xmm0,%xmm0
    41a7:	e8 d4 ce ff ff       	callq  1080 <__printf_chk@plt>
    41ac:	48 8d 35 fc 4b 00 00 	lea    0x4bfc(%rip),%rsi        # 8daf <fma256>
    41b3:	f3 0f 10 44 24 08    	movss  0x8(%rsp),%xmm0
    41b9:	bf 00 2f 68 59       	mov    $0x59682f00,%edi
    41be:	e8 7d 68 00 00       	callq  aa40 <measureFunction>
    41c3:	bf 01 00 00 00       	mov    $0x1,%edi
    41c8:	b8 01 00 00 00       	mov    $0x1,%eax
    41cd:	48 8d 35 0a 73 00 00 	lea    0x730a(%rip),%rsi        # b4de <_IO_stdin_used+0x4de>
    41d4:	f3 0f 5a c0          	cvtss2sd %xmm0,%xmm0
    41d8:	e8 a3 ce ff ff       	callq  1080 <__printf_chk@plt>
    41dd:	48 8d 35 83 4c 00 00 	lea    0x4c83(%rip),%rsi        # 8e67 <fma128>
    41e4:	f3 0f 10 44 24 08    	movss  0x8(%rsp),%xmm0
    41ea:	bf 00 2f 68 59       	mov    $0x59682f00,%edi
    41ef:	e8 4c 68 00 00       	callq  aa40 <measureFunction>
    41f4:	bf 01 00 00 00       	mov    $0x1,%edi
    41f9:	b8 01 00 00 00       	mov    $0x1,%eax
    41fe:	48 8d 35 be 72 00 00 	lea    0x72be(%rip),%rsi        # b4c3 <_IO_stdin_used+0x4c3>
    4205:	f3 0f 5a c0          	cvtss2sd %xmm0,%xmm0
    4209:	e8 72 ce ff ff       	callq  1080 <__printf_chk@plt>
    420e:	48 8d 35 04 55 00 00 	lea    0x5504(%rip),%rsi        # 9719 <latfma256>
    4215:	f3 0f 10 44 24 08    	movss  0x8(%rsp),%xmm0
    421b:	bf 00 2f 68 59       	mov    $0x59682f00,%edi
    4220:	e8 1b 68 00 00       	callq  aa40 <measureFunction>
    4225:	f3 0f 10 7c 24 0c    	movss  0xc(%rsp),%xmm7
    422b:	bf 01 00 00 00       	mov    $0x1,%edi
    4230:	48 8d 35 39 7a 00 00 	lea    0x7a39(%rip),%rsi        # bc70 <_IO_stdin_used+0xc70>
    4237:	b8 01 00 00 00       	mov    $0x1,%eax
    423c:	f3 0f 5e f8          	divss  %xmm0,%xmm7
    4240:	66 0f ef c0          	pxor   %xmm0,%xmm0
    4244:	f3 0f 5a c7          	cvtss2sd %xmm7,%xmm0
    4248:	e8 33 ce ff ff       	callq  1080 <__printf_chk@plt>
    424d:	48 8d 35 7d 55 00 00 	lea    0x557d(%rip),%rsi        # 97d1 <latfma128>
    4254:	f3 0f 10 44 24 08    	movss  0x8(%rsp),%xmm0
    425a:	bf 00 2f 68 59       	mov    $0x59682f00,%edi
    425f:	e8 dc 67 00 00       	callq  aa40 <measureFunction>
    4264:	f3 0f 10 6c 24 0c    	movss  0xc(%rsp),%xmm5
    426a:	bf 01 00 00 00       	mov    $0x1,%edi
    426f:	48 8d 35 d2 79 00 00 	lea    0x79d2(%rip),%rsi        # bc48 <_IO_stdin_used+0xc48>
    4276:	b8 01 00 00 00       	mov    $0x1,%eax
    427b:	f3 0f 5e e8          	divss  %xmm0,%xmm5
    427f:	66 0f ef c0          	pxor   %xmm0,%xmm0
    4283:	f3 0f 5a c5          	cvtss2sd %xmm5,%xmm0
    4287:	e8 f4 cd ff ff       	callq  1080 <__printf_chk@plt>
    428c:	48 8d 35 49 48 00 00 	lea    0x4849(%rip),%rsi        # 8adc <add256fp>
    4293:	f3 0f 10 44 24 08    	movss  0x8(%rsp),%xmm0
    4299:	bf 00 2f 68 59       	mov    $0x59682f00,%edi
    429e:	e8 9d 67 00 00       	callq  aa40 <measureFunction>
    42a3:	bf 01 00 00 00       	mov    $0x1,%edi
    42a8:	b8 01 00 00 00       	mov    $0x1,%eax
    42ad:	48 8d 35 f3 71 00 00 	lea    0x71f3(%rip),%rsi        # b4a7 <_IO_stdin_used+0x4a7>
    42b4:	f3 0f 5a c0          	cvtss2sd %xmm0,%xmm0
    42b8:	e8 c3 cd ff ff       	callq  1080 <__printf_chk@plt>
    42bd:	48 8d 35 79 47 00 00 	lea    0x4779(%rip),%rsi        # 8a3d <mul256fp>
    42c4:	f3 0f 10 44 24 08    	movss  0x8(%rsp),%xmm0
    42ca:	bf 00 2f 68 59       	mov    $0x59682f00,%edi
    42cf:	e8 6c 67 00 00       	callq  aa40 <measureFunction>
    42d4:	bf 01 00 00 00       	mov    $0x1,%edi
    42d9:	b8 01 00 00 00       	mov    $0x1,%eax
    42de:	48 8d 35 a6 71 00 00 	lea    0x71a6(%rip),%rsi        # b48b <_IO_stdin_used+0x48b>
    42e5:	f3 0f 5a c0          	cvtss2sd %xmm0,%xmm0
    42e9:	e8 92 cd ff ff       	callq  1080 <__printf_chk@plt>
    42ee:	48 8d 35 2d 4c 00 00 	lea    0x4c2d(%rip),%rsi        # 8f22 <mixfmafadd256>
    42f5:	f3 0f 10 44 24 08    	movss  0x8(%rsp),%xmm0
    42fb:	bf 05 7a d7 03       	mov    $0x3d77a05,%edi
    4300:	48 c1 e7 09          	shl    $0x9,%rdi
    4304:	e8 37 67 00 00       	callq  aa40 <measureFunction>
    4309:	bf 01 00 00 00       	mov    $0x1,%edi
    430e:	b8 01 00 00 00       	mov    $0x1,%eax
    4313:	48 8d 35 06 79 00 00 	lea    0x7906(%rip),%rsi        # bc20 <_IO_stdin_used+0xc20>
    431a:	f3 0f 5a c0          	cvtss2sd %xmm0,%xmm0
    431e:	e8 5d cd ff ff       	callq  1080 <__printf_chk@plt>
    4323:	48 8d 35 a7 4e 00 00 	lea    0x4ea7(%rip),%rsi        # 91d1 <mixfmaadd256>
    432a:	f3 0f 10 44 24 08    	movss  0x8(%rsp),%xmm0
    4330:	bf 05 7a d7 03       	mov    $0x3d77a05,%edi
    4335:	48 c1 e7 09          	shl    $0x9,%rdi
    4339:	e8 02 67 00 00       	callq  aa40 <measureFunction>
    433e:	bf 01 00 00 00       	mov    $0x1,%edi
    4343:	b8 01 00 00 00       	mov    $0x1,%eax
    4348:	48 8d 35 a9 78 00 00 	lea    0x78a9(%rip),%rsi        # bbf8 <_IO_stdin_used+0xbf8>
    434f:	f3 0f 5a c0          	cvtss2sd %xmm0,%xmm0
    4353:	e8 28 cd ff ff       	callq  1080 <__printf_chk@plt>
    4358:	f3 0f 10 44 24 08    	movss  0x8(%rsp),%xmm0
    435e:	bf 05 7a d7 03       	mov    $0x3d77a05,%edi
    4363:	48 c1 e7 09          	shl    $0x9,%rdi
    4367:	48 8d 35 c2 66 00 00 	lea    0x66c2(%rip),%rsi        # aa30 <mixfmaaddmem256wrapper>
    436e:	e8 cd 66 00 00       	callq  aa40 <measureFunction>
    4373:	bf 01 00 00 00       	mov    $0x1,%edi
    4378:	b8 01 00 00 00       	mov    $0x1,%eax
    437d:	48 8d 35 44 78 00 00 	lea    0x7844(%rip),%rsi        # bbc8 <_IO_stdin_used+0xbc8>
    4384:	f3 0f 5a c0          	cvtss2sd %xmm0,%xmm0
    4388:	e8 f3 cc ff ff       	callq  1080 <__printf_chk@plt>
    438d:	48 8d 35 ee 4e 00 00 	lea    0x4eee(%rip),%rsi        # 9282 <mixfmaand256>
    4394:	f3 0f 10 44 24 08    	movss  0x8(%rsp),%xmm0
    439a:	bf 05 7a d7 03       	mov    $0x3d77a05,%edi
    439f:	48 c1 e7 09          	shl    $0x9,%rdi
    43a3:	e8 98 66 00 00       	callq  aa40 <measureFunction>
    43a8:	bf 01 00 00 00       	mov    $0x1,%edi
    43ad:	b8 01 00 00 00       	mov    $0x1,%eax
    43b2:	48 8d 35 e7 77 00 00 	lea    0x77e7(%rip),%rsi        # bba0 <_IO_stdin_used+0xba0>
    43b9:	f3 0f 5a c0          	cvtss2sd %xmm0,%xmm0
    43bd:	e8 be cc ff ff       	callq  1080 <__printf_chk@plt>
    43c2:	f3 0f 10 44 24 08    	movss  0x8(%rsp),%xmm0
    43c8:	bf 05 7a d7 03       	mov    $0x3d77a05,%edi
    43cd:	48 c1 e7 09          	shl    $0x9,%rdi
    43d1:	48 8d 35 48 66 00 00 	lea    0x6648(%rip),%rsi        # aa20 <mixfmaandmem256wrapper>
    43d8:	e8 63 66 00 00       	callq  aa40 <measureFunction>
    43dd:	bf 01 00 00 00       	mov    $0x1,%edi
    43e2:	b8 01 00 00 00       	mov    $0x1,%eax
    43e7:	48 8d 35 5a 7c 00 00 	lea    0x7c5a(%rip),%rsi        # c048 <_IO_stdin_used+0x1048>
    43ee:	f3 0f 5a c0          	cvtss2sd %xmm0,%xmm0
    43f2:	e8 89 cc ff ff       	callq  1080 <__printf_chk@plt>
    43f7:	48 8d 35 9a 51 00 00 	lea    0x519a(%rip),%rsi        # 9598 <nemesfpumix21>
    43fe:	f3 0f 10 44 24 08    	movss  0x8(%rsp),%xmm0
    4404:	bf 05 7a d7 03       	mov    $0x3d77a05,%edi
    4409:	48 c1 e7 09          	shl    $0x9,%rdi
    440d:	e8 2e 66 00 00       	callq  aa40 <measureFunction>
    4412:	bf 01 00 00 00       	mov    $0x1,%edi
    4417:	b8 01 00 00 00       	mov    $0x1,%eax
    441c:	48 8d 35 4d 77 00 00 	lea    0x774d(%rip),%rsi        # bb70 <_IO_stdin_used+0xb70>
    4423:	f3 0f 5a c0          	cvtss2sd %xmm0,%xmm0
    4427:	e8 54 cc ff ff       	callq  1080 <__printf_chk@plt>
    442c:	48 8d 35 c1 37 00 00 	lea    0x37c1(%rip),%rsi        # 7bf4 <mix256faddintadd>
    4433:	f3 0f 10 44 24 08    	movss  0x8(%rsp),%xmm0
    4439:	bf 00 2f 68 59       	mov    $0x59682f00,%edi
    443e:	e8 fd 65 00 00       	callq  aa40 <measureFunction>
    4443:	bf 01 00 00 00       	mov    $0x1,%edi
    4448:	b8 01 00 00 00       	mov    $0x1,%eax
    444d:	48 8d 35 f4 76 00 00 	lea    0x76f4(%rip),%rsi        # bb48 <_IO_stdin_used+0xb48>
    4454:	f3 0f 5a c0          	cvtss2sd %xmm0,%xmm0
    4458:	e8 23 cc ff ff       	callq  1080 <__printf_chk@plt>
    445d:	48 8d 35 66 56 00 00 	lea    0x5666(%rip),%rsi        # 9aca <latmul16>
    4464:	f3 0f 10 44 24 08    	movss  0x8(%rsp),%xmm0
    446a:	bf 00 2f 68 59       	mov    $0x59682f00,%edi
    446f:	e8 cc 65 00 00       	callq  aa40 <measureFunction>
    4474:	f3 0f 10 7c 24 0c    	movss  0xc(%rsp),%xmm7
    447a:	bf 01 00 00 00       	mov    $0x1,%edi
    447f:	48 8d 35 9a 76 00 00 	lea    0x769a(%rip),%rsi        # bb20 <_IO_stdin_used+0xb20>
    4486:	b8 01 00 00 00       	mov    $0x1,%eax
    448b:	f3 0f 5e f8          	divss  %xmm0,%xmm7
    448f:	66 0f ef c0          	pxor   %xmm0,%xmm0
    4493:	f3 0f 5a c7          	cvtss2sd %xmm7,%xmm0
    4497:	e8 e4 cb ff ff       	callq  1080 <__printf_chk@plt>
    449c:	48 8d 35 87 55 00 00 	lea    0x5587(%rip),%rsi        # 9a2a <latmul64>
    44a3:	f3 0f 10 44 24 08    	movss  0x8(%rsp),%xmm0
    44a9:	bf 00 2f 68 59       	mov    $0x59682f00,%edi
    44ae:	e8 8d 65 00 00       	callq  aa40 <measureFunction>
    44b3:	f3 0f 10 6c 24 0c    	movss  0xc(%rsp),%xmm5
    44b9:	bf 01 00 00 00       	mov    $0x1,%edi
    44be:	48 8d 35 33 76 00 00 	lea    0x7633(%rip),%rsi        # baf8 <_IO_stdin_used+0xaf8>
    44c5:	b8 01 00 00 00       	mov    $0x1,%eax
    44ca:	f3 0f 5e e8          	divss  %xmm0,%xmm5
    44ce:	66 0f ef c0          	pxor   %xmm0,%xmm0
    44d2:	f3 0f 5a c5          	cvtss2sd %xmm5,%xmm0
    44d6:	e8 a5 cb ff ff       	callq  1080 <__printf_chk@plt>
    44db:	48 8d 35 9c 56 00 00 	lea    0x569c(%rip),%rsi        # 9b7e <mul16>
    44e2:	f3 0f 10 44 24 08    	movss  0x8(%rsp),%xmm0
    44e8:	bf 00 2f 68 59       	mov    $0x59682f00,%edi
    44ed:	e8 4e 65 00 00       	callq  aa40 <measureFunction>
    44f2:	bf 01 00 00 00       	mov    $0x1,%edi
    44f7:	b8 01 00 00 00       	mov    $0x1,%eax
    44fc:	48 8d 35 6d 6f 00 00 	lea    0x6f6d(%rip),%rsi        # b470 <_IO_stdin_used+0x470>
    4503:	f3 0f 5a c0          	cvtss2sd %xmm0,%xmm0
    4507:	e8 74 cb ff ff       	callq  1080 <__printf_chk@plt>
    450c:	48 8d 35 1f 57 00 00 	lea    0x571f(%rip),%rsi        # 9c32 <mul64>
    4513:	f3 0f 10 44 24 08    	movss  0x8(%rsp),%xmm0
    4519:	bf 00 2f 68 59       	mov    $0x59682f00,%edi
    451e:	e8 1d 65 00 00       	callq  aa40 <measureFunction>
    4523:	bf 01 00 00 00       	mov    $0x1,%edi
    4528:	b8 01 00 00 00       	mov    $0x1,%eax
    452d:	48 8d 35 21 6f 00 00 	lea    0x6f21(%rip),%rsi        # b455 <_IO_stdin_used+0x455>
    4534:	f3 0f 5a c0          	cvtss2sd %xmm0,%xmm0
    4538:	e8 43 cb ff ff       	callq  1080 <__printf_chk@plt>
    453d:	48 8d 35 d0 57 00 00 	lea    0x57d0(%rip),%rsi        # 9d14 <mixmul16mul64>
    4544:	f3 0f 10 44 24 08    	movss  0x8(%rsp),%xmm0
    454a:	bf 00 2f 68 59       	mov    $0x59682f00,%edi
    454f:	e8 ec 64 00 00       	callq  aa40 <measureFunction>
    4554:	bf 01 00 00 00       	mov    $0x1,%edi
    4559:	b8 01 00 00 00       	mov    $0x1,%eax
    455e:	48 8d 35 63 75 00 00 	lea    0x7563(%rip),%rsi        # bac8 <_IO_stdin_used+0xac8>
    4565:	f3 0f 5a c0          	cvtss2sd %xmm0,%xmm0
    4569:	e8 12 cb ff ff       	callq  1080 <__printf_chk@plt>
    456e:	48 8d 35 4b 58 00 00 	lea    0x584b(%rip),%rsi        # 9dc0 <mixmul16mul64_21>
    4575:	f3 0f 10 44 24 08    	movss  0x8(%rsp),%xmm0
    457b:	bf 00 2f 68 59       	mov    $0x59682f00,%edi
    4580:	e8 bb 64 00 00       	callq  aa40 <measureFunction>
    4585:	bf 01 00 00 00       	mov    $0x1,%edi
    458a:	b8 01 00 00 00       	mov    $0x1,%eax
    458f:	48 8d 35 02 75 00 00 	lea    0x7502(%rip),%rsi        # ba98 <_IO_stdin_used+0xa98>
    4596:	f3 0f 5a c0          	cvtss2sd %xmm0,%xmm0
    459a:	e8 e1 ca ff ff       	callq  1080 <__printf_chk@plt>
    459f:	f3 0f 10 44 24 08    	movss  0x8(%rsp),%xmm0
    45a5:	48 8d 35 c4 63 00 00 	lea    0x63c4(%rip),%rsi        # a970 <load128wrapper>
    45ac:	bf 00 2f 68 59       	mov    $0x59682f00,%edi
    45b1:	e8 8a 64 00 00       	callq  aa40 <measureFunction>
    45b6:	bf 01 00 00 00       	mov    $0x1,%edi
    45bb:	b8 01 00 00 00       	mov    $0x1,%eax
    45c0:	48 8d 35 71 6e 00 00 	lea    0x6e71(%rip),%rsi        # b438 <_IO_stdin_used+0x438>
    45c7:	f3 0f 5a c0          	cvtss2sd %xmm0,%xmm0
    45cb:	e8 b0 ca ff ff       	callq  1080 <__printf_chk@plt>
    45d0:	f3 0f 10 44 24 08    	movss  0x8(%rsp),%xmm0
    45d6:	48 8d 35 a3 63 00 00 	lea    0x63a3(%rip),%rsi        # a980 <spacedload128wrapper>
    45dd:	bf 00 2f 68 59       	mov    $0x59682f00,%edi
    45e2:	e8 59 64 00 00       	callq  aa40 <measureFunction>
    45e7:	bf 01 00 00 00       	mov    $0x1,%edi
    45ec:	b8 01 00 00 00       	mov    $0x1,%eax
    45f1:	48 8d 35 78 74 00 00 	lea    0x7478(%rip),%rsi        # ba70 <_IO_stdin_used+0xa70>
    45f8:	f3 0f 5a c0          	cvtss2sd %xmm0,%xmm0
    45fc:	e8 7f ca ff ff       	callq  1080 <__printf_chk@plt>
    4601:	f3 0f 10 44 24 08    	movss  0x8(%rsp),%xmm0
    4607:	48 8d 35 92 63 00 00 	lea    0x6392(%rip),%rsi        # a9a0 <load256wrapper>
    460e:	bf 00 2f 68 59       	mov    $0x59682f00,%edi
    4613:	e8 28 64 00 00       	callq  aa40 <measureFunction>
    4618:	bf 01 00 00 00       	mov    $0x1,%edi
    461d:	b8 01 00 00 00       	mov    $0x1,%eax
    4622:	48 8d 35 f2 6d 00 00 	lea    0x6df2(%rip),%rsi        # b41b <_IO_stdin_used+0x41b>
    4629:	f3 0f 5a c0          	cvtss2sd %xmm0,%xmm0
    462d:	e8 4e ca ff ff       	callq  1080 <__printf_chk@plt>
    4632:	f3 0f 10 44 24 08    	movss  0x8(%rsp),%xmm0
    4638:	48 8d 35 51 63 00 00 	lea    0x6351(%rip),%rsi        # a990 <spacedstorescalarwrapper>
    463f:	bf 00 2f 68 59       	mov    $0x59682f00,%edi
    4644:	e8 f7 63 00 00       	callq  aa40 <measureFunction>
    4649:	bf 01 00 00 00       	mov    $0x1,%edi
    464e:	b8 01 00 00 00       	mov    $0x1,%eax
    4653:	48 8d 35 ee 73 00 00 	lea    0x73ee(%rip),%rsi        # ba48 <_IO_stdin_used+0xa48>
    465a:	f3 0f 5a c0          	cvtss2sd %xmm0,%xmm0
    465e:	e8 1d ca ff ff       	callq  1080 <__printf_chk@plt>
    4663:	f3 0f 10 44 24 08    	movss  0x8(%rsp),%xmm0
    4669:	48 8d 35 50 63 00 00 	lea    0x6350(%rip),%rsi        # a9c0 <store128wrapper>
    4670:	bf 00 2f 68 59       	mov    $0x59682f00,%edi
    4675:	e8 c6 63 00 00       	callq  aa40 <measureFunction>
    467a:	bf 01 00 00 00       	mov    $0x1,%edi
    467f:	b8 01 00 00 00       	mov    $0x1,%eax
    4684:	48 8d 35 72 6d 00 00 	lea    0x6d72(%rip),%rsi        # b3fd <_IO_stdin_used+0x3fd>
    468b:	f3 0f 5a c0          	cvtss2sd %xmm0,%xmm0
    468f:	e8 ec c9 ff ff       	callq  1080 <__printf_chk@plt>
    4694:	f3 0f 10 44 24 08    	movss  0x8(%rsp),%xmm0
    469a:	48 8d 35 3f 63 00 00 	lea    0x633f(%rip),%rsi        # a9e0 <store256wrapper>
    46a1:	bf 00 2f 68 59       	mov    $0x59682f00,%edi
    46a6:	e8 95 63 00 00       	callq  aa40 <measureFunction>
    46ab:	bf 01 00 00 00       	mov    $0x1,%edi
    46b0:	b8 01 00 00 00       	mov    $0x1,%eax
    46b5:	48 8d 35 23 6d 00 00 	lea    0x6d23(%rip),%rsi        # b3df <_IO_stdin_used+0x3df>
    46bc:	f3 0f 5a c0          	cvtss2sd %xmm0,%xmm0
    46c0:	e8 bb c9 ff ff       	callq  1080 <__printf_chk@plt>
    46c5:	e9 4b e2 ff ff       	jmpq   2915 <main+0x1855>
    46ca:	48 8b 0d 0f 9a 00 00 	mov    0x9a0f(%rip),%rcx        # e0e0 <stderr@@GLIBC_2.2.5>
    46d1:	ba 0f 00 00 00       	mov    $0xf,%edx
    46d6:	be 01 00 00 00       	mov    $0x1,%esi
    46db:	48 8d 3d 59 69 00 00 	lea    0x6959(%rip),%rdi        # b03b <_IO_stdin_used+0x3b>
    46e2:	e8 a9 c9 ff ff       	callq  1090 <fwrite@plt>
    46e7:	e9 91 ca ff ff       	jmpq   117d <main+0xbd>
    46ec:	48 8b 0d ed 99 00 00 	mov    0x99ed(%rip),%rcx        # e0e0 <stderr@@GLIBC_2.2.5>
    46f3:	ba 0f 00 00 00       	mov    $0xf,%edx
    46f8:	be 01 00 00 00       	mov    $0x1,%esi
    46fd:	48 8d 3d 27 69 00 00 	lea    0x6927(%rip),%rdi        # b02b <_IO_stdin_used+0x2b>
    4704:	e8 87 c9 ff ff       	callq  1090 <fwrite@plt>
    4709:	e9 64 ca ff ff       	jmpq   1172 <main+0xb2>
    470e:	48 8b 0d cb 99 00 00 	mov    0x99cb(%rip),%rcx        # e0e0 <stderr@@GLIBC_2.2.5>
    4715:	ba 0e 00 00 00       	mov    $0xe,%edx
    471a:	be 01 00 00 00       	mov    $0x1,%esi
    471f:	48 8d 3d f6 68 00 00 	lea    0x68f6(%rip),%rdi        # b01c <_IO_stdin_used+0x1c>
    4726:	e8 65 c9 ff ff       	callq  1090 <fwrite@plt>
    472b:	e9 37 ca ff ff       	jmpq   1167 <main+0xa7>
    4730:	48 8b 7d 10          	mov    0x10(%rbp),%rdi
    4734:	31 f6                	xor    %esi,%esi
    4736:	ba 0a 00 00 00       	mov    $0xa,%edx
    473b:	e8 30 c9 ff ff       	callq  1070 <strtol@plt>
    4740:	48 8d 35 bd 68 00 00 	lea    0x68bd(%rip),%rsi        # b004 <_IO_stdin_used+0x4>
    4747:	bf 01 00 00 00       	mov    $0x1,%edi
    474c:	4c 69 f0 00 2f 68 59 	imul   $0x59682f00,%rax,%r14
    4753:	31 c0                	xor    %eax,%eax
    4755:	4c 89 f2             	mov    %r14,%rdx
    4758:	e8 23 c9 ff ff       	callq  1080 <__printf_chk@plt>
    475d:	e9 f3 c9 ff ff       	jmpq   1155 <main+0x95>
    4762:	48 8d 35 cf 4e 00 00 	lea    0x4ecf(%rip),%rsi        # 9638 <latfma512>
    4769:	f3 0f 10 05 17 79 00 	movss  0x7917(%rip),%xmm0        # c088 <_IO_stdin_used+0x1088>
    4770:	00 
    4771:	bf 00 2f 68 59       	mov    $0x59682f00,%edi
    4776:	e8 c5 62 00 00       	callq  aa40 <measureFunction>
    477b:	bf 01 00 00 00       	mov    $0x1,%edi
    4780:	b8 01 00 00 00       	mov    $0x1,%eax
    4785:	f3 0f 10 2d fb 78 00 	movss  0x78fb(%rip),%xmm5        # c088 <_IO_stdin_used+0x1088>
    478c:	00 
    478d:	48 8d 35 0c 70 00 00 	lea    0x700c(%rip),%rsi        # b7a0 <_IO_stdin_used+0x7a0>
    4794:	f3 0f 5e e8          	divss  %xmm0,%xmm5
    4798:	66 0f ef c0          	pxor   %xmm0,%xmm0
    479c:	f3 0f 5a c5          	cvtss2sd %xmm5,%xmm0
    47a0:	e8 db c8 ff ff       	callq  1080 <__printf_chk@plt>
    47a5:	41 83 fc 01          	cmp    $0x1,%r12d
    47a9:	0f 8e 97 e1 ff ff    	jle    2946 <main+0x1886>
    47af:	4c 8b 6d 08          	mov    0x8(%rbp),%r13
    47b3:	ba 0f 00 00 00       	mov    $0xf,%edx
    47b8:	48 8d 35 48 69 00 00 	lea    0x6948(%rip),%rsi        # b107 <_IO_stdin_used+0x107>
    47bf:	4c 89 ef             	mov    %r13,%rdi
    47c2:	e8 69 c8 ff ff       	callq  1030 <strncmp@plt>
    47c7:	85 c0                	test   %eax,%eax
    47c9:	0f 85 4d 1c 00 00    	jne    641c <main+0x535c>
    47cf:	48 8d 35 02 45 00 00 	lea    0x4502(%rip),%rsi        # 8cd8 <mixfma256fma512>
    47d6:	f3 0f 10 05 aa 78 00 	movss  0x78aa(%rip),%xmm0        # c088 <_IO_stdin_used+0x1088>
    47dd:	00 
    47de:	bf 00 2f 68 59       	mov    $0x59682f00,%edi
    47e3:	e8 58 62 00 00       	callq  aa40 <measureFunction>
    47e8:	bf 01 00 00 00       	mov    $0x1,%edi
    47ed:	b8 01 00 00 00       	mov    $0x1,%eax
    47f2:	48 8d 35 cf 6f 00 00 	lea    0x6fcf(%rip),%rsi        # b7c8 <_IO_stdin_used+0x7c8>
    47f9:	f3 0f 5a c0          	cvtss2sd %xmm0,%xmm0
    47fd:	e8 7e c8 ff ff       	callq  1080 <__printf_chk@plt>
    4802:	e9 51 ea ff ff       	jmpq   3258 <main+0x2198>
    4807:	f3 0f 10 44 24 08    	movss  0x8(%rsp),%xmm0
    480d:	48 8d 35 7c 61 00 00 	lea    0x617c(%rip),%rsi        # a990 <spacedstorescalarwrapper>
    4814:	bf 00 2f 68 59       	mov    $0x59682f00,%edi
    4819:	e8 22 62 00 00       	callq  aa40 <measureFunction>
    481e:	bf 01 00 00 00       	mov    $0x1,%edi
    4823:	b8 01 00 00 00       	mov    $0x1,%eax
    4828:	48 8d 35 19 72 00 00 	lea    0x7219(%rip),%rsi        # ba48 <_IO_stdin_used+0xa48>
    482f:	f3 0f 5a c0          	cvtss2sd %xmm0,%xmm0
    4833:	e8 48 c8 ff ff       	callq  1080 <__printf_chk@plt>
    4838:	41 83 fc 01          	cmp    $0x1,%r12d
    483c:	0f 8f 17 e0 ff ff    	jg     2859 <main+0x1799>
    4842:	e9 ff e0 ff ff       	jmpq   2946 <main+0x1886>
    4847:	f3 0f 10 44 24 08    	movss  0x8(%rsp),%xmm0
    484d:	48 8d 35 4c 61 00 00 	lea    0x614c(%rip),%rsi        # a9a0 <load256wrapper>
    4854:	bf 00 2f 68 59       	mov    $0x59682f00,%edi
    4859:	e8 e2 61 00 00       	callq  aa40 <measureFunction>
    485e:	bf 01 00 00 00       	mov    $0x1,%edi
    4863:	b8 01 00 00 00       	mov    $0x1,%eax
    4868:	48 8d 35 ac 6b 00 00 	lea    0x6bac(%rip),%rsi        # b41b <_IO_stdin_used+0x41b>
    486f:	f3 0f 5a c0          	cvtss2sd %xmm0,%xmm0
    4873:	e8 08 c8 ff ff       	callq  1080 <__printf_chk@plt>
    4878:	41 83 fc 01          	cmp    $0x1,%r12d
    487c:	0f 8f 86 df ff ff    	jg     2808 <main+0x1748>
    4882:	e9 bf e0 ff ff       	jmpq   2946 <main+0x1886>
    4887:	f3 0f 10 44 24 08    	movss  0x8(%rsp),%xmm0
    488d:	48 8d 35 ec 60 00 00 	lea    0x60ec(%rip),%rsi        # a980 <spacedload128wrapper>
    4894:	bf 00 2f 68 59       	mov    $0x59682f00,%edi
    4899:	e8 a2 61 00 00       	callq  aa40 <measureFunction>
    489e:	bf 01 00 00 00       	mov    $0x1,%edi
    48a3:	b8 01 00 00 00       	mov    $0x1,%eax
    48a8:	48 8d 35 c1 71 00 00 	lea    0x71c1(%rip),%rsi        # ba70 <_IO_stdin_used+0xa70>
    48af:	f3 0f 5a c0          	cvtss2sd %xmm0,%xmm0
    48b3:	e8 c8 c7 ff ff       	callq  1080 <__printf_chk@plt>
    48b8:	41 83 fc 01          	cmp    $0x1,%r12d
    48bc:	0f 8f f5 de ff ff    	jg     27b7 <main+0x16f7>
    48c2:	e9 7f e0 ff ff       	jmpq   2946 <main+0x1886>
    48c7:	f3 0f 10 44 24 08    	movss  0x8(%rsp),%xmm0
    48cd:	48 8d 35 9c 60 00 00 	lea    0x609c(%rip),%rsi        # a970 <load128wrapper>
    48d4:	bf 00 2f 68 59       	mov    $0x59682f00,%edi
    48d9:	e8 62 61 00 00       	callq  aa40 <measureFunction>
    48de:	bf 01 00 00 00       	mov    $0x1,%edi
    48e3:	b8 01 00 00 00       	mov    $0x1,%eax
    48e8:	48 8d 35 49 6b 00 00 	lea    0x6b49(%rip),%rsi        # b438 <_IO_stdin_used+0x438>
    48ef:	f3 0f 5a c0          	cvtss2sd %xmm0,%xmm0
    48f3:	e8 88 c7 ff ff       	callq  1080 <__printf_chk@plt>
    48f8:	41 83 fc 01          	cmp    $0x1,%r12d
    48fc:	0f 8f 64 de ff ff    	jg     2766 <main+0x16a6>
    4902:	e9 3f e0 ff ff       	jmpq   2946 <main+0x1886>
    4907:	48 8d 35 b2 54 00 00 	lea    0x54b2(%rip),%rsi        # 9dc0 <mixmul16mul64_21>
    490e:	f3 0f 10 44 24 08    	movss  0x8(%rsp),%xmm0
    4914:	bf 00 2f 68 59       	mov    $0x59682f00,%edi
    4919:	e8 22 61 00 00       	callq  aa40 <measureFunction>
    491e:	bf 01 00 00 00       	mov    $0x1,%edi
    4923:	b8 01 00 00 00       	mov    $0x1,%eax
    4928:	48 8d 35 69 71 00 00 	lea    0x7169(%rip),%rsi        # ba98 <_IO_stdin_used+0xa98>
    492f:	f3 0f 5a c0          	cvtss2sd %xmm0,%xmm0
    4933:	e8 48 c7 ff ff       	callq  1080 <__printf_chk@plt>
    4938:	41 83 fc 01          	cmp    $0x1,%r12d
    493c:	0f 8f d3 dd ff ff    	jg     2715 <main+0x1655>
    4942:	e9 ff df ff ff       	jmpq   2946 <main+0x1886>
    4947:	48 8d 35 c6 53 00 00 	lea    0x53c6(%rip),%rsi        # 9d14 <mixmul16mul64>
    494e:	f3 0f 10 44 24 08    	movss  0x8(%rsp),%xmm0
    4954:	bf 00 2f 68 59       	mov    $0x59682f00,%edi
    4959:	e8 e2 60 00 00       	callq  aa40 <measureFunction>
    495e:	bf 01 00 00 00       	mov    $0x1,%edi
    4963:	b8 01 00 00 00       	mov    $0x1,%eax
    4968:	48 8d 35 59 71 00 00 	lea    0x7159(%rip),%rsi        # bac8 <_IO_stdin_used+0xac8>
    496f:	f3 0f 5a c0          	cvtss2sd %xmm0,%xmm0
    4973:	e8 08 c7 ff ff       	callq  1080 <__printf_chk@plt>
    4978:	41 83 fc 01          	cmp    $0x1,%r12d
    497c:	0f 8f 42 dd ff ff    	jg     26c4 <main+0x1604>
    4982:	e9 bf df ff ff       	jmpq   2946 <main+0x1886>
    4987:	48 8d 35 a4 52 00 00 	lea    0x52a4(%rip),%rsi        # 9c32 <mul64>
    498e:	f3 0f 10 44 24 08    	movss  0x8(%rsp),%xmm0
    4994:	bf 00 2f 68 59       	mov    $0x59682f00,%edi
    4999:	e8 a2 60 00 00       	callq  aa40 <measureFunction>
    499e:	bf 01 00 00 00       	mov    $0x1,%edi
    49a3:	b8 01 00 00 00       	mov    $0x1,%eax
    49a8:	48 8d 35 a6 6a 00 00 	lea    0x6aa6(%rip),%rsi        # b455 <_IO_stdin_used+0x455>
    49af:	f3 0f 5a c0          	cvtss2sd %xmm0,%xmm0
    49b3:	e8 c8 c6 ff ff       	callq  1080 <__printf_chk@plt>
    49b8:	41 83 fc 01          	cmp    $0x1,%r12d
    49bc:	0f 8f b1 dc ff ff    	jg     2673 <main+0x15b3>
    49c2:	e9 7f df ff ff       	jmpq   2946 <main+0x1886>
    49c7:	48 8d 35 b0 51 00 00 	lea    0x51b0(%rip),%rsi        # 9b7e <mul16>
    49ce:	f3 0f 10 44 24 08    	movss  0x8(%rsp),%xmm0
    49d4:	bf 00 2f 68 59       	mov    $0x59682f00,%edi
    49d9:	e8 62 60 00 00       	callq  aa40 <measureFunction>
    49de:	bf 01 00 00 00       	mov    $0x1,%edi
    49e3:	b8 01 00 00 00       	mov    $0x1,%eax
    49e8:	48 8d 35 81 6a 00 00 	lea    0x6a81(%rip),%rsi        # b470 <_IO_stdin_used+0x470>
    49ef:	f3 0f 5a c0          	cvtss2sd %xmm0,%xmm0
    49f3:	e8 88 c6 ff ff       	callq  1080 <__printf_chk@plt>
    49f8:	41 83 fc 01          	cmp    $0x1,%r12d
    49fc:	0f 8f 20 dc ff ff    	jg     2622 <main+0x1562>
    4a02:	e9 3f df ff ff       	jmpq   2946 <main+0x1886>
    4a07:	48 8d 35 1c 50 00 00 	lea    0x501c(%rip),%rsi        # 9a2a <latmul64>
    4a0e:	f3 0f 10 44 24 08    	movss  0x8(%rsp),%xmm0
    4a14:	bf 00 2f 68 59       	mov    $0x59682f00,%edi
    4a19:	e8 22 60 00 00       	callq  aa40 <measureFunction>
    4a1e:	f3 0f 10 6c 24 0c    	movss  0xc(%rsp),%xmm5
    4a24:	bf 01 00 00 00       	mov    $0x1,%edi
    4a29:	48 8d 35 c8 70 00 00 	lea    0x70c8(%rip),%rsi        # baf8 <_IO_stdin_used+0xaf8>
    4a30:	b8 01 00 00 00       	mov    $0x1,%eax
    4a35:	f3 0f 5e e8          	divss  %xmm0,%xmm5
    4a39:	66 0f ef c0          	pxor   %xmm0,%xmm0
    4a3d:	f3 0f 5a c5          	cvtss2sd %xmm5,%xmm0
    4a41:	e8 3a c6 ff ff       	callq  1080 <__printf_chk@plt>
    4a46:	41 83 fc 01          	cmp    $0x1,%r12d
    4a4a:	0f 8f 81 db ff ff    	jg     25d1 <main+0x1511>
    4a50:	e9 f1 de ff ff       	jmpq   2946 <main+0x1886>
    4a55:	48 8d 35 6e 50 00 00 	lea    0x506e(%rip),%rsi        # 9aca <latmul16>
    4a5c:	f3 0f 10 44 24 08    	movss  0x8(%rsp),%xmm0
    4a62:	bf 00 2f 68 59       	mov    $0x59682f00,%edi
    4a67:	e8 d4 5f 00 00       	callq  aa40 <measureFunction>
    4a6c:	f3 0f 10 6c 24 0c    	movss  0xc(%rsp),%xmm5
    4a72:	bf 01 00 00 00       	mov    $0x1,%edi
    4a77:	48 8d 35 a2 70 00 00 	lea    0x70a2(%rip),%rsi        # bb20 <_IO_stdin_used+0xb20>
    4a7e:	b8 01 00 00 00       	mov    $0x1,%eax
    4a83:	f3 0f 5e e8          	divss  %xmm0,%xmm5
    4a87:	66 0f ef c0          	pxor   %xmm0,%xmm0
    4a8b:	f3 0f 5a c5          	cvtss2sd %xmm5,%xmm0
    4a8f:	e8 ec c5 ff ff       	callq  1080 <__printf_chk@plt>
    4a94:	41 83 fc 01          	cmp    $0x1,%r12d
    4a98:	0f 8f d4 da ff ff    	jg     2572 <main+0x14b2>
    4a9e:	e9 a3 de ff ff       	jmpq   2946 <main+0x1886>
    4aa3:	48 8d 35 4a 31 00 00 	lea    0x314a(%rip),%rsi        # 7bf4 <mix256faddintadd>
    4aaa:	f3 0f 10 44 24 08    	movss  0x8(%rsp),%xmm0
    4ab0:	bf 00 2f 68 59       	mov    $0x59682f00,%edi
    4ab5:	e8 86 5f 00 00       	callq  aa40 <measureFunction>
    4aba:	bf 01 00 00 00       	mov    $0x1,%edi
    4abf:	b8 01 00 00 00       	mov    $0x1,%eax
    4ac4:	48 8d 35 7d 70 00 00 	lea    0x707d(%rip),%rsi        # bb48 <_IO_stdin_used+0xb48>
    4acb:	f3 0f 5a c0          	cvtss2sd %xmm0,%xmm0
    4acf:	e8 ac c5 ff ff       	callq  1080 <__printf_chk@plt>
    4ad4:	41 83 fc 01          	cmp    $0x1,%r12d
    4ad8:	0f 8f 35 da ff ff    	jg     2513 <main+0x1453>
    4ade:	e9 63 de ff ff       	jmpq   2946 <main+0x1886>
    4ae3:	48 8d 35 ae 4a 00 00 	lea    0x4aae(%rip),%rsi        # 9598 <nemesfpumix21>
    4aea:	f3 0f 10 44 24 08    	movss  0x8(%rsp),%xmm0
    4af0:	bf 05 7a d7 03       	mov    $0x3d77a05,%edi
    4af5:	48 c1 e7 09          	shl    $0x9,%rdi
    4af9:	e8 42 5f 00 00       	callq  aa40 <measureFunction>
    4afe:	bf 01 00 00 00       	mov    $0x1,%edi
    4b03:	b8 01 00 00 00       	mov    $0x1,%eax
    4b08:	48 8d 35 61 70 00 00 	lea    0x7061(%rip),%rsi        # bb70 <_IO_stdin_used+0xb70>
    4b0f:	f3 0f 5a c0          	cvtss2sd %xmm0,%xmm0
    4b13:	e8 68 c5 ff ff       	callq  1080 <__printf_chk@plt>
    4b18:	41 83 fc 01          	cmp    $0x1,%r12d
    4b1c:	0f 8f a0 d9 ff ff    	jg     24c2 <main+0x1402>
    4b22:	e9 1f de ff ff       	jmpq   2946 <main+0x1886>
    4b27:	48 8d 35 54 47 00 00 	lea    0x4754(%rip),%rsi        # 9282 <mixfmaand256>
    4b2e:	f3 0f 10 44 24 08    	movss  0x8(%rsp),%xmm0
    4b34:	bf 05 7a d7 03       	mov    $0x3d77a05,%edi
    4b39:	48 c1 e7 09          	shl    $0x9,%rdi
    4b3d:	e8 fe 5e 00 00       	callq  aa40 <measureFunction>
    4b42:	bf 01 00 00 00       	mov    $0x1,%edi
    4b47:	b8 01 00 00 00       	mov    $0x1,%eax
    4b4c:	48 8d 35 4d 70 00 00 	lea    0x704d(%rip),%rsi        # bba0 <_IO_stdin_used+0xba0>
    4b53:	f3 0f 5a c0          	cvtss2sd %xmm0,%xmm0
    4b57:	e8 24 c5 ff ff       	callq  1080 <__printf_chk@plt>
    4b5c:	41 83 fc 01          	cmp    $0x1,%r12d
    4b60:	0f 8f b2 d8 ff ff    	jg     2418 <main+0x1358>
    4b66:	e9 db dd ff ff       	jmpq   2946 <main+0x1886>
    4b6b:	f3 0f 10 44 24 08    	movss  0x8(%rsp),%xmm0
    4b71:	bf 05 7a d7 03       	mov    $0x3d77a05,%edi
    4b76:	48 8d 35 b3 5e 00 00 	lea    0x5eb3(%rip),%rsi        # aa30 <mixfmaaddmem256wrapper>
    4b7d:	48 c1 e7 09          	shl    $0x9,%rdi
    4b81:	e8 ba 5e 00 00       	callq  aa40 <measureFunction>
    4b86:	bf 01 00 00 00       	mov    $0x1,%edi
    4b8b:	b8 01 00 00 00       	mov    $0x1,%eax
    4b90:	48 8d 35 31 70 00 00 	lea    0x7031(%rip),%rsi        # bbc8 <_IO_stdin_used+0xbc8>
    4b97:	f3 0f 5a c0          	cvtss2sd %xmm0,%xmm0
    4b9b:	e8 e0 c4 ff ff       	callq  1080 <__printf_chk@plt>
    4ba0:	41 83 fc 01          	cmp    $0x1,%r12d
    4ba4:	0f 8f 1d d8 ff ff    	jg     23c7 <main+0x1307>
    4baa:	e9 97 dd ff ff       	jmpq   2946 <main+0x1886>
    4baf:	48 8d 35 1b 46 00 00 	lea    0x461b(%rip),%rsi        # 91d1 <mixfmaadd256>
    4bb6:	f3 0f 10 44 24 08    	movss  0x8(%rsp),%xmm0
    4bbc:	bf 05 7a d7 03       	mov    $0x3d77a05,%edi
    4bc1:	48 c1 e7 09          	shl    $0x9,%rdi
    4bc5:	e8 76 5e 00 00       	callq  aa40 <measureFunction>
    4bca:	bf 01 00 00 00       	mov    $0x1,%edi
    4bcf:	b8 01 00 00 00       	mov    $0x1,%eax
    4bd4:	48 8d 35 1d 70 00 00 	lea    0x701d(%rip),%rsi        # bbf8 <_IO_stdin_used+0xbf8>
    4bdb:	f3 0f 5a c0          	cvtss2sd %xmm0,%xmm0
    4bdf:	e8 9c c4 ff ff       	callq  1080 <__printf_chk@plt>
    4be4:	41 83 fc 01          	cmp    $0x1,%r12d
    4be8:	0f 8f 84 d7 ff ff    	jg     2372 <main+0x12b2>
    4bee:	e9 53 dd ff ff       	jmpq   2946 <main+0x1886>
    4bf3:	48 8d 35 28 43 00 00 	lea    0x4328(%rip),%rsi        # 8f22 <mixfmafadd256>
    4bfa:	f3 0f 10 44 24 08    	movss  0x8(%rsp),%xmm0
    4c00:	bf 05 7a d7 03       	mov    $0x3d77a05,%edi
    4c05:	48 c1 e7 09          	shl    $0x9,%rdi
    4c09:	e8 32 5e 00 00       	callq  aa40 <measureFunction>
    4c0e:	bf 01 00 00 00       	mov    $0x1,%edi
    4c13:	b8 01 00 00 00       	mov    $0x1,%eax
    4c18:	48 8d 35 01 70 00 00 	lea    0x7001(%rip),%rsi        # bc20 <_IO_stdin_used+0xc20>
    4c1f:	f3 0f 5a c0          	cvtss2sd %xmm0,%xmm0
    4c23:	e8 58 c4 ff ff       	callq  1080 <__printf_chk@plt>
    4c28:	41 83 fc 01          	cmp    $0x1,%r12d
    4c2c:	0f 8f eb d6 ff ff    	jg     231d <main+0x125d>
    4c32:	e9 0f dd ff ff       	jmpq   2946 <main+0x1886>
    4c37:	48 8d 35 ff 3d 00 00 	lea    0x3dff(%rip),%rsi        # 8a3d <mul256fp>
    4c3e:	f3 0f 10 44 24 08    	movss  0x8(%rsp),%xmm0
    4c44:	bf 00 2f 68 59       	mov    $0x59682f00,%edi
    4c49:	e8 f2 5d 00 00       	callq  aa40 <measureFunction>
    4c4e:	bf 01 00 00 00       	mov    $0x1,%edi
    4c53:	b8 01 00 00 00       	mov    $0x1,%eax
    4c58:	48 8d 35 2c 68 00 00 	lea    0x682c(%rip),%rsi        # b48b <_IO_stdin_used+0x48b>
    4c5f:	f3 0f 5a c0          	cvtss2sd %xmm0,%xmm0
    4c63:	e8 18 c4 ff ff       	callq  1080 <__printf_chk@plt>
    4c68:	41 83 fc 01          	cmp    $0x1,%r12d
    4c6c:	0f 8f 56 d6 ff ff    	jg     22c8 <main+0x1208>
    4c72:	e9 cf dc ff ff       	jmpq   2946 <main+0x1886>
    4c77:	48 8d 35 5e 3e 00 00 	lea    0x3e5e(%rip),%rsi        # 8adc <add256fp>
    4c7e:	f3 0f 10 44 24 08    	movss  0x8(%rsp),%xmm0
    4c84:	bf 00 2f 68 59       	mov    $0x59682f00,%edi
    4c89:	e8 b2 5d 00 00       	callq  aa40 <measureFunction>
    4c8e:	bf 01 00 00 00       	mov    $0x1,%edi
    4c93:	b8 01 00 00 00       	mov    $0x1,%eax
    4c98:	48 8d 35 08 68 00 00 	lea    0x6808(%rip),%rsi        # b4a7 <_IO_stdin_used+0x4a7>
    4c9f:	f3 0f 5a c0          	cvtss2sd %xmm0,%xmm0
    4ca3:	e8 d8 c3 ff ff       	callq  1080 <__printf_chk@plt>
    4ca8:	41 83 fc 01          	cmp    $0x1,%r12d
    4cac:	0f 8f c5 d5 ff ff    	jg     2277 <main+0x11b7>
    4cb2:	e9 8f dc ff ff       	jmpq   2946 <main+0x1886>
    4cb7:	48 8d 35 13 4b 00 00 	lea    0x4b13(%rip),%rsi        # 97d1 <latfma128>
    4cbe:	f3 0f 10 44 24 08    	movss  0x8(%rsp),%xmm0
    4cc4:	bf 00 2f 68 59       	mov    $0x59682f00,%edi
    4cc9:	e8 72 5d 00 00       	callq  aa40 <measureFunction>
    4cce:	f3 0f 10 74 24 0c    	movss  0xc(%rsp),%xmm6
    4cd4:	bf 01 00 00 00       	mov    $0x1,%edi
    4cd9:	48 8d 35 68 6f 00 00 	lea    0x6f68(%rip),%rsi        # bc48 <_IO_stdin_used+0xc48>
    4ce0:	b8 01 00 00 00       	mov    $0x1,%eax
    4ce5:	f3 0f 5e f0          	divss  %xmm0,%xmm6
    4ce9:	66 0f ef c0          	pxor   %xmm0,%xmm0
    4ced:	f3 0f 5a c6          	cvtss2sd %xmm6,%xmm0
    4cf1:	e8 8a c3 ff ff       	callq  1080 <__printf_chk@plt>
    4cf6:	41 83 fc 01          	cmp    $0x1,%r12d
    4cfa:	0f 8f 26 d5 ff ff    	jg     2226 <main+0x1166>
    4d00:	e9 41 dc ff ff       	jmpq   2946 <main+0x1886>
    4d05:	48 8d 35 0d 4a 00 00 	lea    0x4a0d(%rip),%rsi        # 9719 <latfma256>
    4d0c:	f3 0f 10 44 24 08    	movss  0x8(%rsp),%xmm0
    4d12:	bf 00 2f 68 59       	mov    $0x59682f00,%edi
    4d17:	e8 24 5d 00 00       	callq  aa40 <measureFunction>
    4d1c:	f3 0f 10 7c 24 0c    	movss  0xc(%rsp),%xmm7
    4d22:	bf 01 00 00 00       	mov    $0x1,%edi
    4d27:	48 8d 35 42 6f 00 00 	lea    0x6f42(%rip),%rsi        # bc70 <_IO_stdin_used+0xc70>
    4d2e:	b8 01 00 00 00       	mov    $0x1,%eax
    4d33:	f3 0f 5e f8          	divss  %xmm0,%xmm7
    4d37:	66 0f ef c0          	pxor   %xmm0,%xmm0
    4d3b:	f3 0f 5a c7          	cvtss2sd %xmm7,%xmm0
    4d3f:	e8 3c c3 ff ff       	callq  1080 <__printf_chk@plt>
    4d44:	41 83 fc 01          	cmp    $0x1,%r12d
    4d48:	0f 8f 79 d4 ff ff    	jg     21c7 <main+0x1107>
    4d4e:	e9 f3 db ff ff       	jmpq   2946 <main+0x1886>
    4d53:	48 8d 35 0d 41 00 00 	lea    0x410d(%rip),%rsi        # 8e67 <fma128>
    4d5a:	f3 0f 10 44 24 08    	movss  0x8(%rsp),%xmm0
    4d60:	bf 00 2f 68 59       	mov    $0x59682f00,%edi
    4d65:	e8 d6 5c 00 00       	callq  aa40 <measureFunction>
    4d6a:	bf 01 00 00 00       	mov    $0x1,%edi
    4d6f:	b8 01 00 00 00       	mov    $0x1,%eax
    4d74:	48 8d 35 48 67 00 00 	lea    0x6748(%rip),%rsi        # b4c3 <_IO_stdin_used+0x4c3>
    4d7b:	f3 0f 5a c0          	cvtss2sd %xmm0,%xmm0
    4d7f:	e8 fc c2 ff ff       	callq  1080 <__printf_chk@plt>
    4d84:	41 83 fc 01          	cmp    $0x1,%r12d
    4d88:	0f 8f da d3 ff ff    	jg     2168 <main+0x10a8>
    4d8e:	e9 b3 db ff ff       	jmpq   2946 <main+0x1886>
    4d93:	48 8d 35 15 40 00 00 	lea    0x4015(%rip),%rsi        # 8daf <fma256>
    4d9a:	f3 0f 10 44 24 08    	movss  0x8(%rsp),%xmm0
    4da0:	bf 00 2f 68 59       	mov    $0x59682f00,%edi
    4da5:	e8 96 5c 00 00       	callq  aa40 <measureFunction>
    4daa:	bf 01 00 00 00       	mov    $0x1,%edi
    4daf:	b8 01 00 00 00       	mov    $0x1,%eax
    4db4:	48 8d 35 23 67 00 00 	lea    0x6723(%rip),%rsi        # b4de <_IO_stdin_used+0x4de>
    4dbb:	f3 0f 5a c0          	cvtss2sd %xmm0,%xmm0
    4dbf:	e8 bc c2 ff ff       	callq  1080 <__printf_chk@plt>
    4dc4:	41 83 fc 01          	cmp    $0x1,%r12d
    4dc8:	0f 8f 49 d3 ff ff    	jg     2117 <main+0x1057>
    4dce:	e9 73 db ff ff       	jmpq   2946 <main+0x1886>
    4dd3:	48 8d 35 43 3a 00 00 	lea    0x3a43(%rip),%rsi        # 881d <mul128int>
    4dda:	f3 0f 10 44 24 08    	movss  0x8(%rsp),%xmm0
    4de0:	4c 89 f7             	mov    %r14,%rdi
    4de3:	e8 58 5c 00 00       	callq  aa40 <measureFunction>
    4de8:	bf 01 00 00 00       	mov    $0x1,%edi
    4ded:	b8 01 00 00 00       	mov    $0x1,%eax
    4df2:	48 8d 35 9f 6e 00 00 	lea    0x6e9f(%rip),%rsi        # bc98 <_IO_stdin_used+0xc98>
    4df9:	f3 0f 5a c0          	cvtss2sd %xmm0,%xmm0
    4dfd:	e8 7e c2 ff ff       	callq  1080 <__printf_chk@plt>
    4e02:	41 83 fc 01          	cmp    $0x1,%r12d
    4e06:	0f 8f ba d2 ff ff    	jg     20c6 <main+0x1006>
    4e0c:	e9 35 db ff ff       	jmpq   2946 <main+0x1886>
    4e11:	48 8d 35 9c 35 00 00 	lea    0x359c(%rip),%rsi        # 83b4 <add128int>
    4e18:	f3 0f 10 44 24 08    	movss  0x8(%rsp),%xmm0
    4e1e:	4c 89 f7             	mov    %r14,%rdi
    4e21:	e8 1a 5c 00 00       	callq  aa40 <measureFunction>
    4e26:	bf 01 00 00 00       	mov    $0x1,%edi
    4e2b:	b8 01 00 00 00       	mov    $0x1,%eax
    4e30:	48 8d 35 89 6e 00 00 	lea    0x6e89(%rip),%rsi        # bcc0 <_IO_stdin_used+0xcc0>
    4e37:	f3 0f 5a c0          	cvtss2sd %xmm0,%xmm0
    4e3b:	e8 40 c2 ff ff       	callq  1080 <__printf_chk@plt>
    4e40:	41 83 fc 01          	cmp    $0x1,%r12d
    4e44:	0f 8f 2d d2 ff ff    	jg     2077 <main+0xfb7>
    4e4a:	e9 f7 da ff ff       	jmpq   2946 <main+0x1886>
    4e4f:	48 8d 35 f6 4a 00 00 	lea    0x4af6(%rip),%rsi        # 994c <mul128fp>
    4e56:	f3 0f 10 44 24 08    	movss  0x8(%rsp),%xmm0
    4e5c:	4c 89 f7             	mov    %r14,%rdi
    4e5f:	e8 dc 5b 00 00       	callq  aa40 <measureFunction>
    4e64:	bf 01 00 00 00       	mov    $0x1,%edi
    4e69:	b8 01 00 00 00       	mov    $0x1,%eax
    4e6e:	48 8d 35 73 6e 00 00 	lea    0x6e73(%rip),%rsi        # bce8 <_IO_stdin_used+0xce8>
    4e75:	f3 0f 5a c0          	cvtss2sd %xmm0,%xmm0
    4e79:	e8 02 c2 ff ff       	callq  1080 <__printf_chk@plt>
    4e7e:	41 83 fc 01          	cmp    $0x1,%r12d
    4e82:	0f 8f a0 d1 ff ff    	jg     2028 <main+0xf68>
    4e88:	e9 b9 da ff ff       	jmpq   2946 <main+0x1886>
    4e8d:	48 8d 35 27 4b 00 00 	lea    0x4b27(%rip),%rsi        # 99bb <add128fp>
    4e94:	f3 0f 10 44 24 08    	movss  0x8(%rsp),%xmm0
    4e9a:	4c 89 f7             	mov    %r14,%rdi
    4e9d:	e8 9e 5b 00 00       	callq  aa40 <measureFunction>
    4ea2:	bf 01 00 00 00       	mov    $0x1,%edi
    4ea7:	b8 01 00 00 00       	mov    $0x1,%eax
    4eac:	48 8d 35 55 6e 00 00 	lea    0x6e55(%rip),%rsi        # bd08 <_IO_stdin_used+0xd08>
    4eb3:	f3 0f 5a c0          	cvtss2sd %xmm0,%xmm0
    4eb7:	e8 c4 c1 ff ff       	callq  1080 <__printf_chk@plt>
    4ebc:	41 83 fc 01          	cmp    $0x1,%r12d
    4ec0:	0f 8f 13 d1 ff ff    	jg     1fd9 <main+0xf19>
    4ec6:	e9 7b da ff ff       	jmpq   2946 <main+0x1886>
    4ecb:	48 8d 35 1a 4a 00 00 	lea    0x4a1a(%rip),%rsi        # 98ec <latmul128fp>
    4ed2:	f3 0f 10 44 24 08    	movss  0x8(%rsp),%xmm0
    4ed8:	bf 00 2f 68 59       	mov    $0x59682f00,%edi
    4edd:	e8 5e 5b 00 00       	callq  aa40 <measureFunction>
    4ee2:	f3 0f 10 6c 24 0c    	movss  0xc(%rsp),%xmm5
    4ee8:	bf 01 00 00 00       	mov    $0x1,%edi
    4eed:	48 8d 35 34 6e 00 00 	lea    0x6e34(%rip),%rsi        # bd28 <_IO_stdin_used+0xd28>
    4ef4:	b8 01 00 00 00       	mov    $0x1,%eax
    4ef9:	f3 0f 5e e8          	divss  %xmm0,%xmm5
    4efd:	66 0f ef c0          	pxor   %xmm0,%xmm0
    4f01:	f3 0f 5a c5          	cvtss2sd %xmm5,%xmm0
    4f05:	e8 76 c1 ff ff       	callq  1080 <__printf_chk@plt>
    4f0a:	41 83 fc 01          	cmp    $0x1,%r12d
    4f0e:	0f 8f 76 d0 ff ff    	jg     1f8a <main+0xeca>
    4f14:	e9 2d da ff ff       	jmpq   2946 <main+0x1886>
    4f19:	48 8d 35 6c 49 00 00 	lea    0x496c(%rip),%rsi        # 988c <latadd128fp>
    4f20:	f3 0f 10 44 24 08    	movss  0x8(%rsp),%xmm0
    4f26:	bf 00 2f 68 59       	mov    $0x59682f00,%edi
    4f2b:	e8 10 5b 00 00       	callq  aa40 <measureFunction>
    4f30:	f3 0f 10 74 24 0c    	movss  0xc(%rsp),%xmm6
    4f36:	bf 01 00 00 00       	mov    $0x1,%edi
    4f3b:	48 8d 35 0e 6e 00 00 	lea    0x6e0e(%rip),%rsi        # bd50 <_IO_stdin_used+0xd50>
    4f42:	b8 01 00 00 00       	mov    $0x1,%eax
    4f47:	f3 0f 5e f0          	divss  %xmm0,%xmm6
    4f4b:	66 0f ef c0          	pxor   %xmm0,%xmm0
    4f4f:	f3 0f 5a c6          	cvtss2sd %xmm6,%xmm0
    4f53:	e8 28 c1 ff ff       	callq  1080 <__printf_chk@plt>
    4f58:	41 83 fc 01          	cmp    $0x1,%r12d
    4f5c:	0f 8f c9 cf ff ff    	jg     1f2b <main+0xe6b>
    4f62:	e9 df d9 ff ff       	jmpq   2946 <main+0x1886>
    4f67:	48 8d 35 0d 3c 00 00 	lea    0x3c0d(%rip),%rsi        # 8b7b <latmul256fp>
    4f6e:	f3 0f 10 44 24 08    	movss  0x8(%rsp),%xmm0
    4f74:	bf 00 2f 68 59       	mov    $0x59682f00,%edi
    4f79:	e8 c2 5a 00 00       	callq  aa40 <measureFunction>
    4f7e:	f3 0f 10 7c 24 0c    	movss  0xc(%rsp),%xmm7
    4f84:	bf 01 00 00 00       	mov    $0x1,%edi
    4f89:	48 8d 35 e8 6d 00 00 	lea    0x6de8(%rip),%rsi        # bd78 <_IO_stdin_used+0xd78>
    4f90:	b8 01 00 00 00       	mov    $0x1,%eax
    4f95:	f3 0f 5e f8          	divss  %xmm0,%xmm7
    4f99:	66 0f ef c0          	pxor   %xmm0,%xmm0
    4f9d:	f3 0f 5a c7          	cvtss2sd %xmm7,%xmm0
    4fa1:	e8 da c0 ff ff       	callq  1080 <__printf_chk@plt>
    4fa6:	41 83 fc 01          	cmp    $0x1,%r12d
    4faa:	0f 8f 1c cf ff ff    	jg     1ecc <main+0xe0c>
    4fb0:	e9 91 d9 ff ff       	jmpq   2946 <main+0x1886>
    4fb5:	48 8d 35 05 3a 00 00 	lea    0x3a05(%rip),%rsi        # 89c1 <latadd256fp>
    4fbc:	f3 0f 10 44 24 08    	movss  0x8(%rsp),%xmm0
    4fc2:	bf 00 2f 68 59       	mov    $0x59682f00,%edi
    4fc7:	e8 74 5a 00 00       	callq  aa40 <measureFunction>
    4fcc:	f3 0f 10 6c 24 0c    	movss  0xc(%rsp),%xmm5
    4fd2:	bf 01 00 00 00       	mov    $0x1,%edi
    4fd7:	48 8d 35 c2 6d 00 00 	lea    0x6dc2(%rip),%rsi        # bda0 <_IO_stdin_used+0xda0>
    4fde:	b8 01 00 00 00       	mov    $0x1,%eax
    4fe3:	f3 0f 5e e8          	divss  %xmm0,%xmm5
    4fe7:	66 0f ef c0          	pxor   %xmm0,%xmm0
    4feb:	f3 0f 5a c5          	cvtss2sd %xmm5,%xmm0
    4fef:	e8 8c c0 ff ff       	callq  1080 <__printf_chk@plt>
    4ff4:	41 83 fc 01          	cmp    $0x1,%r12d
    4ff8:	0f 8f 6f ce ff ff    	jg     1e6d <main+0xdad>
    4ffe:	e9 43 d9 ff ff       	jmpq   2946 <main+0x1886>
    5003:	48 8d 35 92 38 00 00 	lea    0x3892(%rip),%rsi        # 889c <latmul128int>
    500a:	f3 0f 10 44 24 08    	movss  0x8(%rsp),%xmm0
    5010:	bf 00 2f 68 59       	mov    $0x59682f00,%edi
    5015:	e8 26 5a 00 00       	callq  aa40 <measureFunction>
    501a:	f3 0f 10 74 24 0c    	movss  0xc(%rsp),%xmm6
    5020:	bf 01 00 00 00       	mov    $0x1,%edi
    5025:	48 8d 35 9c 6d 00 00 	lea    0x6d9c(%rip),%rsi        # bdc8 <_IO_stdin_used+0xdc8>
    502c:	b8 01 00 00 00       	mov    $0x1,%eax
    5031:	f3 0f 5e f0          	divss  %xmm0,%xmm6
    5035:	66 0f ef c0          	pxor   %xmm0,%xmm0
    5039:	f3 0f 5a c6          	cvtss2sd %xmm6,%xmm0
    503d:	e8 3e c0 ff ff       	callq  1080 <__printf_chk@plt>
    5042:	41 83 fc 01          	cmp    $0x1,%r12d
    5046:	0f 8f c2 cd ff ff    	jg     1e0e <main+0xd4e>
    504c:	e9 f5 d8 ff ff       	jmpq   2946 <main+0x1886>
    5051:	48 8d 35 f1 32 00 00 	lea    0x32f1(%rip),%rsi        # 8349 <latadd128int>
    5058:	f3 0f 10 44 24 08    	movss  0x8(%rsp),%xmm0
    505e:	4c 89 f7             	mov    %r14,%rdi
    5061:	e8 da 59 00 00       	callq  aa40 <measureFunction>
    5066:	f3 0f 10 7c 24 0c    	movss  0xc(%rsp),%xmm7
    506c:	bf 01 00 00 00       	mov    $0x1,%edi
    5071:	48 8d 35 88 6d 00 00 	lea    0x6d88(%rip),%rsi        # be00 <_IO_stdin_used+0xe00>
    5078:	b8 01 00 00 00       	mov    $0x1,%eax
    507d:	f3 0f 5e f8          	divss  %xmm0,%xmm7
    5081:	66 0f ef c0          	pxor   %xmm0,%xmm0
    5085:	f3 0f 5a c7          	cvtss2sd %xmm7,%xmm0
    5089:	e8 f2 bf ff ff       	callq  1080 <__printf_chk@plt>
    508e:	41 83 fc 01          	cmp    $0x1,%r12d
    5092:	0f 8f 17 cd ff ff    	jg     1daf <main+0xcef>
    5098:	e9 a9 d8 ff ff       	jmpq   2946 <main+0x1886>
    509d:	48 8d 35 f7 31 00 00 	lea    0x31f7(%rip),%rsi        # 829b <latmul256int>
    50a4:	f3 0f 10 44 24 08    	movss  0x8(%rsp),%xmm0
    50aa:	bf 00 2f 68 59       	mov    $0x59682f00,%edi
    50af:	e8 8c 59 00 00       	callq  aa40 <measureFunction>
    50b4:	f3 0f 10 6c 24 0c    	movss  0xc(%rsp),%xmm5
    50ba:	bf 01 00 00 00       	mov    $0x1,%edi
    50bf:	48 8d 35 6a 6d 00 00 	lea    0x6d6a(%rip),%rsi        # be30 <_IO_stdin_used+0xe30>
    50c6:	b8 01 00 00 00       	mov    $0x1,%eax
    50cb:	f3 0f 5e e8          	divss  %xmm0,%xmm5
    50cf:	66 0f ef c0          	pxor   %xmm0,%xmm0
    50d3:	f3 0f 5a c5          	cvtss2sd %xmm5,%xmm0
    50d7:	e8 a4 bf ff ff       	callq  1080 <__printf_chk@plt>
    50dc:	41 83 fc 01          	cmp    $0x1,%r12d
    50e0:	0f 8f 6c cc ff ff    	jg     1d52 <main+0xc92>
    50e6:	e9 5b d8 ff ff       	jmpq   2946 <main+0x1886>
    50eb:	48 8d 35 be 2d 00 00 	lea    0x2dbe(%rip),%rsi        # 7eb0 <latadd256int>
    50f2:	f3 0f 10 44 24 08    	movss  0x8(%rsp),%xmm0
    50f8:	4c 89 f7             	mov    %r14,%rdi
    50fb:	e8 40 59 00 00       	callq  aa40 <measureFunction>
    5100:	f3 0f 10 74 24 0c    	movss  0xc(%rsp),%xmm6
    5106:	bf 01 00 00 00       	mov    $0x1,%edi
    510b:	48 8d 35 56 6d 00 00 	lea    0x6d56(%rip),%rsi        # be68 <_IO_stdin_used+0xe68>
    5112:	b8 01 00 00 00       	mov    $0x1,%eax
    5117:	f3 0f 5e f0          	divss  %xmm0,%xmm6
    511b:	66 0f ef c0          	pxor   %xmm0,%xmm0
    511f:	f3 0f 5a c6          	cvtss2sd %xmm6,%xmm0
    5123:	e8 58 bf ff ff       	callq  1080 <__printf_chk@plt>
    5128:	41 83 fc 01          	cmp    $0x1,%r12d
    512c:	0f 8f c1 cb ff ff    	jg     1cf3 <main+0xc33>
    5132:	e9 0f d8 ff ff       	jmpq   2946 <main+0x1886>
    5137:	48 8d 35 62 2b 00 00 	lea    0x2b62(%rip),%rsi        # 7ca0 <mix256fp>
    513e:	f3 0f 10 44 24 08    	movss  0x8(%rsp),%xmm0
    5144:	4c 89 f7             	mov    %r14,%rdi
    5147:	e8 f4 58 00 00       	callq  aa40 <measureFunction>
    514c:	bf 01 00 00 00       	mov    $0x1,%edi
    5151:	b8 01 00 00 00       	mov    $0x1,%eax
    5156:	48 8d 35 3b 6d 00 00 	lea    0x6d3b(%rip),%rsi        # be98 <_IO_stdin_used+0xe98>
    515d:	f3 0f 5a c0          	cvtss2sd %xmm0,%xmm0
    5161:	e8 1a bf ff ff       	callq  1080 <__printf_chk@plt>
    5166:	41 83 fc 01          	cmp    $0x1,%r12d
    516a:	0f 8f 26 cb ff ff    	jg     1c96 <main+0xbd6>
    5170:	e9 d1 d7 ff ff       	jmpq   2946 <main+0x1886>
    5175:	48 8d 35 cf 29 00 00 	lea    0x29cf(%rip),%rsi        # 7b4b <mixadd256fpint>
    517c:	f3 0f 10 44 24 08    	movss  0x8(%rsp),%xmm0
    5182:	4c 89 f7             	mov    %r14,%rdi
    5185:	e8 b6 58 00 00       	callq  aa40 <measureFunction>
    518a:	bf 01 00 00 00       	mov    $0x1,%edi
    518f:	b8 01 00 00 00       	mov    $0x1,%eax
    5194:	48 8d 35 2d 6d 00 00 	lea    0x6d2d(%rip),%rsi        # bec8 <_IO_stdin_used+0xec8>
    519b:	f3 0f 5a c0          	cvtss2sd %xmm0,%xmm0
    519f:	e8 dc be ff ff       	callq  1080 <__printf_chk@plt>
    51a4:	41 83 fc 01          	cmp    $0x1,%r12d
    51a8:	0f 8f 99 ca ff ff    	jg     1c47 <main+0xb87>
    51ae:	e9 93 d7 ff ff       	jmpq   2946 <main+0x1886>
    51b3:	48 8d 35 4f 2c 00 00 	lea    0x2c4f(%rip),%rsi        # 7e09 <mixadd256int11>
    51ba:	f3 0f 10 44 24 08    	movss  0x8(%rsp),%xmm0
    51c0:	4c 89 f7             	mov    %r14,%rdi
    51c3:	e8 78 58 00 00       	callq  aa40 <measureFunction>
    51c8:	bf 01 00 00 00       	mov    $0x1,%edi
    51cd:	b8 01 00 00 00       	mov    $0x1,%eax
    51d2:	48 8d 35 1f 6d 00 00 	lea    0x6d1f(%rip),%rsi        # bef8 <_IO_stdin_used+0xef8>
    51d9:	f3 0f 5a c0          	cvtss2sd %xmm0,%xmm0
    51dd:	e8 9e be ff ff       	callq  1080 <__printf_chk@plt>
    51e2:	41 83 fc 01          	cmp    $0x1,%r12d
    51e6:	0f 8f 0c ca ff ff    	jg     1bf8 <main+0xb38>
    51ec:	e9 55 d7 ff ff       	jmpq   2946 <main+0x1886>
    51f1:	48 8d 35 4c 2b 00 00 	lea    0x2b4c(%rip),%rsi        # 7d44 <mixadd256int>
    51f8:	f3 0f 10 44 24 08    	movss  0x8(%rsp),%xmm0
    51fe:	4c 89 f7             	mov    %r14,%rdi
    5201:	e8 3a 58 00 00       	callq  aa40 <measureFunction>
    5206:	bf 01 00 00 00       	mov    $0x1,%edi
    520b:	b8 01 00 00 00       	mov    $0x1,%eax
    5210:	48 8d 35 19 6d 00 00 	lea    0x6d19(%rip),%rsi        # bf30 <_IO_stdin_used+0xf30>
    5217:	f3 0f 5a c0          	cvtss2sd %xmm0,%xmm0
    521b:	e8 60 be ff ff       	callq  1080 <__printf_chk@plt>
    5220:	41 83 fc 01          	cmp    $0x1,%r12d
    5224:	0f 8f 7f c9 ff ff    	jg     1ba9 <main+0xae9>
    522a:	e9 17 d7 ff ff       	jmpq   2946 <main+0x1886>
    522f:	48 8d 35 55 26 00 00 	lea    0x2655(%rip),%rsi        # 788b <add256int>
    5236:	f3 0f 10 44 24 08    	movss  0x8(%rsp),%xmm0
    523c:	4c 89 f7             	mov    %r14,%rdi
    523f:	e8 fc 57 00 00       	callq  aa40 <measureFunction>
    5244:	bf 01 00 00 00       	mov    $0x1,%edi
    5249:	b8 01 00 00 00       	mov    $0x1,%eax
    524e:	48 8d 35 13 6d 00 00 	lea    0x6d13(%rip),%rsi        # bf68 <_IO_stdin_used+0xf68>
    5255:	f3 0f 5a c0          	cvtss2sd %xmm0,%xmm0
    5259:	e8 22 be ff ff       	callq  1080 <__printf_chk@plt>
    525e:	41 83 fc 01          	cmp    $0x1,%r12d
    5262:	0f 8f f2 c8 ff ff    	jg     1b5a <main+0xa9a>
    5268:	e9 d9 d6 ff ff       	jmpq   2946 <main+0x1886>
    526d:	48 8d 35 02 21 00 00 	lea    0x2102(%rip),%rsi        # 7376 <leamultest>
    5274:	f3 0f 10 44 24 08    	movss  0x8(%rsp),%xmm0
    527a:	4c 89 f7             	mov    %r14,%rdi
    527d:	e8 be 57 00 00       	callq  aa40 <measureFunction>
    5282:	bf 01 00 00 00       	mov    $0x1,%edi
    5287:	b8 01 00 00 00       	mov    $0x1,%eax
    528c:	48 8d 35 fd 6c 00 00 	lea    0x6cfd(%rip),%rsi        # bf90 <_IO_stdin_used+0xf90>
    5293:	f3 0f 5a c0          	cvtss2sd %xmm0,%xmm0
    5297:	e8 e4 bd ff ff       	callq  1080 <__printf_chk@plt>
    529c:	41 83 fc 01          	cmp    $0x1,%r12d
    52a0:	0f 8f 65 c8 ff ff    	jg     1b0b <main+0xa4b>
    52a6:	e9 9b d6 ff ff       	jmpq   2946 <main+0x1886>
    52ab:	48 8d 35 21 20 00 00 	lea    0x2021(%rip),%rsi        # 72d3 <leatest>
    52b2:	f3 0f 10 44 24 08    	movss  0x8(%rsp),%xmm0
    52b8:	4c 89 f7             	mov    %r14,%rdi
    52bb:	e8 80 57 00 00       	callq  aa40 <measureFunction>
    52c0:	bf 01 00 00 00       	mov    $0x1,%edi
    52c5:	b8 01 00 00 00       	mov    $0x1,%eax
    52ca:	48 8d 35 28 62 00 00 	lea    0x6228(%rip),%rsi        # b4f9 <_IO_stdin_used+0x4f9>
    52d1:	f3 0f 5a c0          	cvtss2sd %xmm0,%xmm0
    52d5:	e8 a6 bd ff ff       	callq  1080 <__printf_chk@plt>
    52da:	41 83 fc 01          	cmp    $0x1,%r12d
    52de:	0f 8f d8 c7 ff ff    	jg     1abc <main+0x9fc>
    52e4:	e9 5d d6 ff ff       	jmpq   2946 <main+0x1886>
    52e9:	48 8d 35 a3 1e 00 00 	lea    0x1ea3(%rip),%rsi        # 7193 <rorbtstest>
    52f0:	f3 0f 10 44 24 08    	movss  0x8(%rsp),%xmm0
    52f6:	4c 89 f7             	mov    %r14,%rdi
    52f9:	e8 42 57 00 00       	callq  aa40 <measureFunction>
    52fe:	bf 01 00 00 00       	mov    $0x1,%edi
    5303:	b8 01 00 00 00       	mov    $0x1,%eax
    5308:	48 8d 35 03 62 00 00 	lea    0x6203(%rip),%rsi        # b512 <_IO_stdin_used+0x512>
    530f:	f3 0f 5a c0          	cvtss2sd %xmm0,%xmm0
    5313:	e8 68 bd ff ff       	callq  1080 <__printf_chk@plt>
    5318:	41 83 fc 01          	cmp    $0x1,%r12d
    531c:	0f 8f 4b c7 ff ff    	jg     1a6d <main+0x9ad>
    5322:	e9 1f d6 ff ff       	jmpq   2946 <main+0x1886>
    5327:	48 8d 35 fb 20 00 00 	lea    0x20fb(%rip),%rsi        # 7429 <btsmultest>
    532e:	f3 0f 10 44 24 08    	movss  0x8(%rsp),%xmm0
    5334:	4c 89 f7             	mov    %r14,%rdi
    5337:	e8 04 57 00 00       	callq  aa40 <measureFunction>
    533c:	bf 01 00 00 00       	mov    $0x1,%edi
    5341:	b8 01 00 00 00       	mov    $0x1,%eax
    5346:	48 8d 35 e0 61 00 00 	lea    0x61e0(%rip),%rsi        # b52d <_IO_stdin_used+0x52d>
    534d:	f3 0f 5a c0          	cvtss2sd %xmm0,%xmm0
    5351:	e8 2a bd ff ff       	callq  1080 <__printf_chk@plt>
    5356:	41 83 fc 01          	cmp    $0x1,%r12d
    535a:	0f 8f be c6 ff ff    	jg     1a1e <main+0x95e>
    5360:	e9 e1 d5 ff ff       	jmpq   2946 <main+0x1886>
    5365:	48 8d 35 c4 1e 00 00 	lea    0x1ec4(%rip),%rsi        # 7230 <btstest>
    536c:	f3 0f 10 44 24 08    	movss  0x8(%rsp),%xmm0
    5372:	4c 89 f7             	mov    %r14,%rdi
    5375:	e8 c6 56 00 00       	callq  aa40 <measureFunction>
    537a:	bf 01 00 00 00       	mov    $0x1,%edi
    537f:	b8 01 00 00 00       	mov    $0x1,%eax
    5384:	48 8d 35 bd 61 00 00 	lea    0x61bd(%rip),%rsi        # b548 <_IO_stdin_used+0x548>
    538b:	f3 0f 5a c0          	cvtss2sd %xmm0,%xmm0
    538f:	e8 ec bc ff ff       	callq  1080 <__printf_chk@plt>
    5394:	41 83 fc 01          	cmp    $0x1,%r12d
    5398:	0f 8f 31 c6 ff ff    	jg     19cf <main+0x90f>
    539e:	e9 a3 d5 ff ff       	jmpq   2946 <main+0x1886>
    53a3:	48 8d 35 34 1d 00 00 	lea    0x1d34(%rip),%rsi        # 70de <mixrormultest>
    53aa:	f3 0f 10 44 24 08    	movss  0x8(%rsp),%xmm0
    53b0:	4c 89 f7             	mov    %r14,%rdi
    53b3:	e8 88 56 00 00       	callq  aa40 <measureFunction>
    53b8:	bf 01 00 00 00       	mov    $0x1,%edi
    53bd:	b8 01 00 00 00       	mov    $0x1,%eax
    53c2:	48 8d 35 92 61 00 00 	lea    0x6192(%rip),%rsi        # b55b <_IO_stdin_used+0x55b>
    53c9:	f3 0f 5a c0          	cvtss2sd %xmm0,%xmm0
    53cd:	e8 ae bc ff ff       	callq  1080 <__printf_chk@plt>
    53d2:	41 83 fc 01          	cmp    $0x1,%r12d
    53d6:	0f 8f a4 c5 ff ff    	jg     1980 <main+0x8c0>
    53dc:	e9 65 d5 ff ff       	jmpq   2946 <main+0x1886>
    53e1:	48 8d 35 6a 1c 00 00 	lea    0x1c6a(%rip),%rsi        # 7052 <mixrorshltest>
    53e8:	f3 0f 10 44 24 08    	movss  0x8(%rsp),%xmm0
    53ee:	4c 89 f7             	mov    %r14,%rdi
    53f1:	e8 4a 56 00 00       	callq  aa40 <measureFunction>
    53f6:	bf 01 00 00 00       	mov    $0x1,%edi
    53fb:	b8 01 00 00 00       	mov    $0x1,%eax
    5400:	48 8d 35 b1 6b 00 00 	lea    0x6bb1(%rip),%rsi        # bfb8 <_IO_stdin_used+0xfb8>
    5407:	f3 0f 5a c0          	cvtss2sd %xmm0,%xmm0
    540b:	e8 70 bc ff ff       	callq  1080 <__printf_chk@plt>
    5410:	41 83 fc 01          	cmp    $0x1,%r12d
    5414:	0f 8f 17 c5 ff ff    	jg     1931 <main+0x871>
    541a:	e9 27 d5 ff ff       	jmpq   2946 <main+0x1886>
    541f:	48 8d 35 14 1b 00 00 	lea    0x1b14(%rip),%rsi        # 6f3a <rortest>
    5426:	f3 0f 10 44 24 08    	movss  0x8(%rsp),%xmm0
    542c:	4c 89 f7             	mov    %r14,%rdi
    542f:	e8 0c 56 00 00       	callq  aa40 <measureFunction>
    5434:	bf 01 00 00 00       	mov    $0x1,%edi
    5439:	b8 01 00 00 00       	mov    $0x1,%eax
    543e:	48 8d 35 31 61 00 00 	lea    0x6131(%rip),%rsi        # b576 <_IO_stdin_used+0x576>
    5445:	f3 0f 5a c0          	cvtss2sd %xmm0,%xmm0
    5449:	e8 32 bc ff ff       	callq  1080 <__printf_chk@plt>
    544e:	41 83 fc 01          	cmp    $0x1,%r12d
    5452:	0f 8f 8a c4 ff ff    	jg     18e2 <main+0x822>
    5458:	e9 e9 d4 ff ff       	jmpq   2946 <main+0x1886>
    545d:	48 8d 35 62 1b 00 00 	lea    0x1b62(%rip),%rsi        # 6fc6 <shltest>
    5464:	f3 0f 10 44 24 08    	movss  0x8(%rsp),%xmm0
    546a:	4c 89 f7             	mov    %r14,%rdi
    546d:	e8 ce 55 00 00       	callq  aa40 <measureFunction>
    5472:	bf 01 00 00 00       	mov    $0x1,%edi
    5477:	b8 01 00 00 00       	mov    $0x1,%eax
    547c:	48 8d 35 0a 61 00 00 	lea    0x610a(%rip),%rsi        # b58d <_IO_stdin_used+0x58d>
    5483:	f3 0f 5a c0          	cvtss2sd %xmm0,%xmm0
    5487:	e8 f4 bb ff ff       	callq  1080 <__printf_chk@plt>
    548c:	41 83 fc 01          	cmp    $0x1,%r12d
    5490:	0f 8f fd c3 ff ff    	jg     1893 <main+0x7d3>
    5496:	e9 ab d4 ff ff       	jmpq   2946 <main+0x1886>
    549b:	48 8d 35 42 4f 00 00 	lea    0x4f42(%rip),%rsi        # a3e4 <pdepmultest>
    54a2:	f3 0f 10 44 24 08    	movss  0x8(%rsp),%xmm0
    54a8:	4c 89 f7             	mov    %r14,%rdi
    54ab:	e8 90 55 00 00       	callq  aa40 <measureFunction>
    54b0:	bf 01 00 00 00       	mov    $0x1,%edi
    54b5:	b8 01 00 00 00       	mov    $0x1,%eax
    54ba:	48 8d 35 e3 60 00 00 	lea    0x60e3(%rip),%rsi        # b5a4 <_IO_stdin_used+0x5a4>
    54c1:	f3 0f 5a c0          	cvtss2sd %xmm0,%xmm0
    54c5:	e8 b6 bb ff ff       	callq  1080 <__printf_chk@plt>
    54ca:	41 83 fc 01          	cmp    $0x1,%r12d
    54ce:	0f 8f 70 c3 ff ff    	jg     1844 <main+0x784>
    54d4:	e9 6d d4 ff ff       	jmpq   2946 <main+0x1886>
    54d9:	48 8d 35 b3 4f 00 00 	lea    0x4fb3(%rip),%rsi        # a493 <pexttest>
    54e0:	f3 0f 10 44 24 08    	movss  0x8(%rsp),%xmm0
    54e6:	4c 89 f7             	mov    %r14,%rdi
    54e9:	e8 52 55 00 00       	callq  aa40 <measureFunction>
    54ee:	bf 01 00 00 00       	mov    $0x1,%edi
    54f3:	b8 01 00 00 00       	mov    $0x1,%eax
    54f8:	48 8d 35 c1 60 00 00 	lea    0x60c1(%rip),%rsi        # b5c0 <_IO_stdin_used+0x5c0>
    54ff:	f3 0f 5a c0          	cvtss2sd %xmm0,%xmm0
    5503:	e8 78 bb ff ff       	callq  1080 <__printf_chk@plt>
    5508:	41 83 fc 01          	cmp    $0x1,%r12d
    550c:	0f 8f e3 c2 ff ff    	jg     17f5 <main+0x735>
    5512:	e9 2f d4 ff ff       	jmpq   2946 <main+0x1886>
    5517:	48 8d 35 12 4e 00 00 	lea    0x4e12(%rip),%rsi        # a330 <pdeptest>
    551e:	f3 0f 10 44 24 08    	movss  0x8(%rsp),%xmm0
    5524:	4c 89 f7             	mov    %r14,%rdi
    5527:	e8 14 55 00 00       	callq  aa40 <measureFunction>
    552c:	bf 01 00 00 00       	mov    $0x1,%edi
    5531:	b8 01 00 00 00       	mov    $0x1,%eax
    5536:	48 8d 35 97 60 00 00 	lea    0x6097(%rip),%rsi        # b5d4 <_IO_stdin_used+0x5d4>
    553d:	f3 0f 5a c0          	cvtss2sd %xmm0,%xmm0
    5541:	e8 3a bb ff ff       	callq  1080 <__printf_chk@plt>
    5546:	41 83 fc 01          	cmp    $0x1,%r12d
    554a:	0f 8f 56 c2 ff ff    	jg     17a6 <main+0x6e6>
    5550:	e9 f1 d3 ff ff       	jmpq   2946 <main+0x1886>
    5555:	48 8d 35 6d 20 00 00 	lea    0x206d(%rip),%rsi        # 75c9 <ntjmptest>
    555c:	f3 0f 10 44 24 08    	movss  0x8(%rsp),%xmm0
    5562:	4c 89 f7             	mov    %r14,%rdi
    5565:	e8 d6 54 00 00       	callq  aa40 <measureFunction>
    556a:	bf 01 00 00 00       	mov    $0x1,%edi
    556f:	b8 01 00 00 00       	mov    $0x1,%eax
    5574:	48 8d 35 6d 60 00 00 	lea    0x606d(%rip),%rsi        # b5e8 <_IO_stdin_used+0x5e8>
    557b:	f3 0f 5a c0          	cvtss2sd %xmm0,%xmm0
    557f:	e8 fc ba ff ff       	callq  1080 <__printf_chk@plt>
    5584:	41 83 fc 01          	cmp    $0x1,%r12d
    5588:	0f 8f c9 c1 ff ff    	jg     1757 <main+0x697>
    558e:	e9 b3 d3 ff ff       	jmpq   2946 <main+0x1886>
    5593:	48 8d 35 57 1f 00 00 	lea    0x1f57(%rip),%rsi        # 74f1 <jmptest>
    559a:	f3 0f 10 44 24 08    	movss  0x8(%rsp),%xmm0
    55a0:	4c 89 f7             	mov    %r14,%rdi
    55a3:	e8 98 54 00 00       	callq  aa40 <measureFunction>
    55a8:	bf 01 00 00 00       	mov    $0x1,%edi
    55ad:	b8 01 00 00 00       	mov    $0x1,%eax
    55b2:	48 8d 35 45 60 00 00 	lea    0x6045(%rip),%rsi        # b5fe <_IO_stdin_used+0x5fe>
    55b9:	f3 0f 5a c0          	cvtss2sd %xmm0,%xmm0
    55bd:	e8 be ba ff ff       	callq  1080 <__printf_chk@plt>
    55c2:	41 83 fc 01          	cmp    $0x1,%r12d
    55c6:	0f 8f 3c c1 ff ff    	jg     1708 <main+0x648>
    55cc:	e9 75 d3 ff ff       	jmpq   2946 <main+0x1886>
    55d1:	48 8d 35 0f 21 00 00 	lea    0x210f(%rip),%rsi        # 76e7 <jmpmultest>
    55d8:	f3 0f 10 44 24 08    	movss  0x8(%rsp),%xmm0
    55de:	4c 89 f7             	mov    %r14,%rdi
    55e1:	e8 5a 54 00 00       	callq  aa40 <measureFunction>
    55e6:	bf 01 00 00 00       	mov    $0x1,%edi
    55eb:	b8 01 00 00 00       	mov    $0x1,%eax
    55f0:	48 8d 35 20 60 00 00 	lea    0x6020(%rip),%rsi        # b617 <_IO_stdin_used+0x617>
    55f7:	f3 0f 5a c0          	cvtss2sd %xmm0,%xmm0
    55fb:	e8 80 ba ff ff       	callq  1080 <__printf_chk@plt>
    5600:	41 83 fc 01          	cmp    $0x1,%r12d
    5604:	0f 8f af c0 ff ff    	jg     16b9 <main+0x5f9>
    560a:	e9 37 d3 ff ff       	jmpq   2946 <main+0x1886>
    560f:	48 8d 35 8e 21 00 00 	lea    0x218e(%rip),%rsi        # 77a4 <addmultest>
    5616:	f3 0f 10 44 24 08    	movss  0x8(%rsp),%xmm0
    561c:	4c 89 f7             	mov    %r14,%rdi
    561f:	e8 1c 54 00 00       	callq  aa40 <measureFunction>
    5624:	bf 01 00 00 00       	mov    $0x1,%edi
    5629:	b8 01 00 00 00       	mov    $0x1,%eax
    562e:	48 8d 35 fd 5f 00 00 	lea    0x5ffd(%rip),%rsi        # b632 <_IO_stdin_used+0x632>
    5635:	f3 0f 5a c0          	cvtss2sd %xmm0,%xmm0
    5639:	e8 42 ba ff ff       	callq  1080 <__printf_chk@plt>
    563e:	41 83 fc 01          	cmp    $0x1,%r12d
    5642:	0f 8f 22 c0 ff ff    	jg     166a <main+0x5aa>
    5648:	e9 f9 d2 ff ff       	jmpq   2946 <main+0x1886>
    564d:	48 8d 35 52 16 00 00 	lea    0x1652(%rip),%rsi        # 6ca6 <clkmovtest>
    5654:	f3 0f 10 44 24 08    	movss  0x8(%rsp),%xmm0
    565a:	4c 89 f7             	mov    %r14,%rdi
    565d:	e8 de 53 00 00       	callq  aa40 <measureFunction>
    5662:	bf 01 00 00 00       	mov    $0x1,%edi
    5667:	b8 01 00 00 00       	mov    $0x1,%eax
    566c:	48 8d 35 65 69 00 00 	lea    0x6965(%rip),%rsi        # bfd8 <_IO_stdin_used+0xfd8>
    5673:	f3 0f 5a c0          	cvtss2sd %xmm0,%xmm0
    5677:	e8 04 ba ff ff       	callq  1080 <__printf_chk@plt>
    567c:	41 83 fc 01          	cmp    $0x1,%r12d
    5680:	0f 8f 95 bf ff ff    	jg     161b <main+0x55b>
    5686:	e9 bb d2 ff ff       	jmpq   2946 <main+0x1886>
    568b:	48 8d 35 5c 52 00 00 	lea    0x525c(%rip),%rsi        # a8ee <depdectest>
    5692:	f3 0f 10 44 24 08    	movss  0x8(%rsp),%xmm0
    5698:	4c 89 f7             	mov    %r14,%rdi
    569b:	e8 a0 53 00 00       	callq  aa40 <measureFunction>
    56a0:	bf 01 00 00 00       	mov    $0x1,%edi
    56a5:	b8 01 00 00 00       	mov    $0x1,%eax
    56aa:	48 8d 35 9e 5f 00 00 	lea    0x5f9e(%rip),%rsi        # b64f <_IO_stdin_used+0x64f>
    56b1:	f3 0f 5a c0          	cvtss2sd %xmm0,%xmm0
    56b5:	e8 c6 b9 ff ff       	callq  1080 <__printf_chk@plt>
    56ba:	41 83 fc 01          	cmp    $0x1,%r12d
    56be:	0f 8f bd be ff ff    	jg     1581 <main+0x4c1>
    56c4:	e9 7d d2 ff ff       	jmpq   2946 <main+0x1886>
    56c9:	48 8d 35 a7 51 00 00 	lea    0x51a7(%rip),%rsi        # a877 <depinctest>
    56d0:	f3 0f 10 44 24 08    	movss  0x8(%rsp),%xmm0
    56d6:	4c 89 f7             	mov    %r14,%rdi
    56d9:	e8 62 53 00 00       	callq  aa40 <measureFunction>
    56de:	bf 01 00 00 00       	mov    $0x1,%edi
    56e3:	b8 01 00 00 00       	mov    $0x1,%eax
    56e8:	48 8d 35 77 5f 00 00 	lea    0x5f77(%rip),%rsi        # b666 <_IO_stdin_used+0x666>
    56ef:	f3 0f 5a c0          	cvtss2sd %xmm0,%xmm0
    56f3:	e8 88 b9 ff ff       	callq  1080 <__printf_chk@plt>
    56f8:	41 83 fc 01          	cmp    $0x1,%r12d
    56fc:	0f 8f 30 be ff ff    	jg     1532 <main+0x472>
    5702:	e9 3f d2 ff ff       	jmpq   2946 <main+0x1886>
    5707:	48 8d 35 67 50 00 00 	lea    0x5067(%rip),%rsi        # a775 <subzerotest>
    570e:	f3 0f 10 44 24 08    	movss  0x8(%rsp),%xmm0
    5714:	4c 89 f7             	mov    %r14,%rdi
    5717:	e8 24 53 00 00       	callq  aa40 <measureFunction>
    571c:	bf 01 00 00 00       	mov    $0x1,%edi
    5721:	b8 01 00 00 00       	mov    $0x1,%eax
    5726:	48 8d 35 50 5f 00 00 	lea    0x5f50(%rip),%rsi        # b67d <_IO_stdin_used+0x67d>
    572d:	f3 0f 5a c0          	cvtss2sd %xmm0,%xmm0
    5731:	e8 4a b9 ff ff       	callq  1080 <__printf_chk@plt>
    5736:	41 83 fc 01          	cmp    $0x1,%r12d
    573a:	0f 8f a3 bd ff ff    	jg     14e3 <main+0x423>
    5740:	e9 01 d2 ff ff       	jmpq   2946 <main+0x1886>
    5745:	48 8d 35 e7 4e 00 00 	lea    0x4ee7(%rip),%rsi        # a633 <movzerotest>
    574c:	f3 0f 10 44 24 08    	movss  0x8(%rsp),%xmm0
    5752:	4c 89 f7             	mov    %r14,%rdi
    5755:	e8 e6 52 00 00       	callq  aa40 <measureFunction>
    575a:	bf 01 00 00 00       	mov    $0x1,%edi
    575f:	b8 01 00 00 00       	mov    $0x1,%eax
    5764:	48 8d 35 2a 5f 00 00 	lea    0x5f2a(%rip),%rsi        # b695 <_IO_stdin_used+0x695>
    576b:	f3 0f 5a c0          	cvtss2sd %xmm0,%xmm0
    576f:	e8 0c b9 ff ff       	callq  1080 <__printf_chk@plt>
    5774:	41 83 fc 01          	cmp    $0x1,%r12d
    5778:	0f 8f 16 bd ff ff    	jg     1494 <main+0x3d4>
    577e:	e9 c3 d1 ff ff       	jmpq   2946 <main+0x1886>
    5783:	48 8d 35 74 4f 00 00 	lea    0x4f74(%rip),%rsi        # a6fe <xorzerotest>
    578a:	f3 0f 10 44 24 08    	movss  0x8(%rsp),%xmm0
    5790:	4c 89 f7             	mov    %r14,%rdi
    5793:	e8 a8 52 00 00       	callq  aa40 <measureFunction>
    5798:	bf 01 00 00 00       	mov    $0x1,%edi
    579d:	b8 01 00 00 00       	mov    $0x1,%eax
    57a2:	48 8d 35 04 5f 00 00 	lea    0x5f04(%rip),%rsi        # b6ad <_IO_stdin_used+0x6ad>
    57a9:	f3 0f 5a c0          	cvtss2sd %xmm0,%xmm0
    57ad:	e8 ce b8 ff ff       	callq  1080 <__printf_chk@plt>
    57b2:	41 83 fc 01          	cmp    $0x1,%r12d
    57b6:	0f 8f 89 bc ff ff    	jg     1445 <main+0x385>
    57bc:	e9 85 d1 ff ff       	jmpq   2946 <main+0x1886>
    57c1:	48 8d 35 f4 4d 00 00 	lea    0x4df4(%rip),%rsi        # a5bc <indepmovtest>
    57c8:	f3 0f 10 44 24 08    	movss  0x8(%rsp),%xmm0
    57ce:	4c 89 f7             	mov    %r14,%rdi
    57d1:	e8 6a 52 00 00       	callq  aa40 <measureFunction>
    57d6:	bf 01 00 00 00       	mov    $0x1,%edi
    57db:	b8 01 00 00 00       	mov    $0x1,%eax
    57e0:	48 8d 35 41 68 00 00 	lea    0x6841(%rip),%rsi        # c028 <_IO_stdin_used+0x1028>
    57e7:	f3 0f 5a c0          	cvtss2sd %xmm0,%xmm0
    57eb:	e8 90 b8 ff ff       	callq  1080 <__printf_chk@plt>
    57f0:	41 83 fc 01          	cmp    $0x1,%r12d
    57f4:	0f 8f fc bb ff ff    	jg     13f6 <main+0x336>
    57fa:	e9 47 d1 ff ff       	jmpq   2946 <main+0x1886>
    57ff:	48 8d 35 41 4d 00 00 	lea    0x4d41(%rip),%rsi        # a547 <depmovtest>
    5806:	f3 0f 10 44 24 08    	movss  0x8(%rsp),%xmm0
    580c:	4c 89 f7             	mov    %r14,%rdi
    580f:	e8 2c 52 00 00       	callq  aa40 <measureFunction>
    5814:	bf 01 00 00 00       	mov    $0x1,%edi
    5819:	b8 01 00 00 00       	mov    $0x1,%eax
    581e:	48 8d 35 a0 5e 00 00 	lea    0x5ea0(%rip),%rsi        # b6c5 <_IO_stdin_used+0x6c5>
    5825:	f3 0f 5a c0          	cvtss2sd %xmm0,%xmm0
    5829:	e8 52 b8 ff ff       	callq  1080 <__printf_chk@plt>
    582e:	41 83 fc 01          	cmp    $0x1,%r12d
    5832:	0f 8f 6f bb ff ff    	jg     13a7 <main+0x2e7>
    5838:	e9 09 d1 ff ff       	jmpq   2946 <main+0x1886>
    583d:	48 8d 35 e6 15 00 00 	lea    0x15e6(%rip),%rsi        # 6e2a <addnoptest>
    5844:	f3 0f 10 44 24 08    	movss  0x8(%rsp),%xmm0
    584a:	4c 89 f7             	mov    %r14,%rdi
    584d:	e8 ee 51 00 00       	callq  aa40 <measureFunction>
    5852:	bf 01 00 00 00       	mov    $0x1,%edi
    5857:	b8 01 00 00 00       	mov    $0x1,%eax
    585c:	48 8d 35 80 5e 00 00 	lea    0x5e80(%rip),%rsi        # b6e3 <_IO_stdin_used+0x6e3>
    5863:	f3 0f 5a c0          	cvtss2sd %xmm0,%xmm0
    5867:	e8 14 b8 ff ff       	callq  1080 <__printf_chk@plt>
    586c:	41 83 fc 01          	cmp    $0x1,%r12d
    5870:	0f 8f e2 ba ff ff    	jg     1358 <main+0x298>
    5876:	e9 cb d0 ff ff       	jmpq   2946 <main+0x1886>
    587b:	4c 8d 3d a8 15 00 00 	lea    0x15a8(%rip),%r15        # 6e2a <addnoptest>
    5882:	f3 0f 10 44 24 08    	movss  0x8(%rsp),%xmm0
    5888:	4c 89 f7             	mov    %r14,%rdi
    588b:	4c 89 fe             	mov    %r15,%rsi
    588e:	e8 ad 51 00 00       	callq  aa40 <measureFunction>
    5893:	bf 01 00 00 00       	mov    $0x1,%edi
    5898:	b8 01 00 00 00       	mov    $0x1,%eax
    589d:	48 8d 35 5c 5e 00 00 	lea    0x5e5c(%rip),%rsi        # b700 <_IO_stdin_used+0x700>
    58a4:	f3 0f 5a c0          	cvtss2sd %xmm0,%xmm0
    58a8:	e8 d3 b7 ff ff       	callq  1080 <__printf_chk@plt>
    58ad:	41 83 fc 01          	cmp    $0x1,%r12d
    58b1:	0f 8f 5b ba ff ff    	jg     1312 <main+0x252>
    58b7:	e9 8a d0 ff ff       	jmpq   2946 <main+0x1886>
    58bc:	48 8d 35 db 14 00 00 	lea    0x14db(%rip),%rsi        # 6d9e <addtest>
    58c3:	f3 0f 10 44 24 08    	movss  0x8(%rsp),%xmm0
    58c9:	4c 89 f7             	mov    %r14,%rdi
    58cc:	e8 6f 51 00 00       	callq  aa40 <measureFunction>
    58d1:	bf 01 00 00 00       	mov    $0x1,%edi
    58d6:	b8 01 00 00 00       	mov    $0x1,%eax
    58db:	48 8d 35 3b 5e 00 00 	lea    0x5e3b(%rip),%rsi        # b71d <_IO_stdin_used+0x71d>
    58e2:	f3 0f 5a c0          	cvtss2sd %xmm0,%xmm0
    58e6:	e8 95 b7 ff ff       	callq  1080 <__printf_chk@plt>
    58eb:	41 83 fc 01          	cmp    $0x1,%r12d
    58ef:	0f 8f d0 b9 ff ff    	jg     12c5 <main+0x205>
    58f5:	e9 4c d0 ff ff       	jmpq   2946 <main+0x1886>
    58fa:	48 8d 35 3e 14 00 00 	lea    0x143e(%rip),%rsi        # 6d3f <noptest>
    5901:	f3 0f 10 44 24 08    	movss  0x8(%rsp),%xmm0
    5907:	4c 89 f7             	mov    %r14,%rdi
    590a:	e8 31 51 00 00       	callq  aa40 <measureFunction>
    590f:	bf 01 00 00 00       	mov    $0x1,%edi
    5914:	b8 01 00 00 00       	mov    $0x1,%eax
    5919:	48 8d 35 11 5e 00 00 	lea    0x5e11(%rip),%rsi        # b731 <_IO_stdin_used+0x731>
    5920:	f3 0f 5a c0          	cvtss2sd %xmm0,%xmm0
    5924:	e8 57 b7 ff ff       	callq  1080 <__printf_chk@plt>
    5929:	41 83 fc 01          	cmp    $0x1,%r12d
    592d:	0f 8f 43 b9 ff ff    	jg     1276 <main+0x1b6>
    5933:	e9 0e d0 ff ff       	jmpq   2946 <main+0x1886>
    5938:	45 31 ed             	xor    %r13d,%r13d
    593b:	48 8d 74 24 10       	lea    0x10(%rsp),%rsi
    5940:	48 8d 7c 24 20       	lea    0x20(%rsp),%rdi
    5945:	e8 06 b7 ff ff       	callq  1050 <gettimeofday@plt>
    594a:	4c 89 f7             	mov    %r14,%rdi
    594d:	e8 f7 12 00 00       	callq  6c49 <clktest>
    5952:	48 8d 74 24 18       	lea    0x18(%rsp),%rsi
    5957:	48 8d 7c 24 30       	lea    0x30(%rsp),%rdi
    595c:	e8 ef b6 ff ff       	callq  1050 <gettimeofday@plt>
    5961:	48 8b 44 24 38       	mov    0x38(%rsp),%rax
    5966:	48 2b 44 24 28       	sub    0x28(%rsp),%rax
    596b:	be e8 03 00 00       	mov    $0x3e8,%esi
    5970:	48 99                	cqto   
    5972:	48 8b 4c 24 30       	mov    0x30(%rsp),%rcx
    5977:	48 2b 4c 24 20       	sub    0x20(%rsp),%rcx
    597c:	48 f7 fe             	idiv   %rsi
    597f:	48 69 c9 e8 03 00 00 	imul   $0x3e8,%rcx,%rcx
    5986:	48 01 c1             	add    %rax,%rcx
    5989:	0f 88 03 0b 00 00    	js     6492 <main+0x53d2>
    598f:	66 0f ef c0          	pxor   %xmm0,%xmm0
    5993:	f3 48 0f 2a c1       	cvtsi2ss %rcx,%xmm0
    5998:	f3 0f 5a c0          	cvtss2sd %xmm0,%xmm0
    599c:	f2 0f 59 05 d4 66 00 	mulsd  0x66d4(%rip),%xmm0        # c078 <_IO_stdin_used+0x1078>
    59a3:	00 
    59a4:	4d 85 f6             	test   %r14,%r14
    59a7:	0f 88 cd 0a 00 00    	js     647a <main+0x53ba>
    59ad:	66 0f ef c9          	pxor   %xmm1,%xmm1
    59b1:	f3 49 0f 2a ce       	cvtsi2ss %r14,%xmm1
    59b6:	f3 0f 5a c9          	cvtss2sd %xmm1,%xmm1
    59ba:	f2 0f 5e c1          	divsd  %xmm1,%xmm0
    59be:	bf 01 00 00 00       	mov    $0x1,%edi
    59c3:	f3 0f 10 2d bd 66 00 	movss  0x66bd(%rip),%xmm5        # c088 <_IO_stdin_used+0x1088>
    59ca:	00 
    59cb:	48 8d 35 a6 5d 00 00 	lea    0x5da6(%rip),%rsi        # b778 <_IO_stdin_used+0x778>
    59d2:	b8 01 00 00 00       	mov    $0x1,%eax
    59d7:	f3 0f 11 6c 24 0c    	movss  %xmm5,0xc(%rsp)
    59dd:	f2 0f 5a c0          	cvtsd2ss %xmm0,%xmm0
    59e1:	f3 0f 5e e8          	divss  %xmm0,%xmm5
    59e5:	66 0f ef c0          	pxor   %xmm0,%xmm0
    59e9:	f3 0f 11 6c 24 08    	movss  %xmm5,0x8(%rsp)
    59ef:	f3 0f 5a c5          	cvtss2sd %xmm5,%xmm0
    59f3:	e8 88 b6 ff ff       	callq  1080 <__printf_chk@plt>
    59f8:	45 85 ed             	test   %r13d,%r13d
    59fb:	0f 84 8f de ff ff    	je     3890 <main+0x27d0>
    5a01:	48 8d 35 ef 31 00 00 	lea    0x31ef(%rip),%rsi        # 8bf7 <fma512>
    5a08:	f3 0f 10 44 24 08    	movss  0x8(%rsp),%xmm0
    5a0e:	bf 00 2f 68 59       	mov    $0x59682f00,%edi
    5a13:	e8 28 50 00 00       	callq  aa40 <measureFunction>
    5a18:	bf 01 00 00 00       	mov    $0x1,%edi
    5a1d:	b8 01 00 00 00       	mov    $0x1,%eax
    5a22:	48 8d 35 34 56 00 00 	lea    0x5634(%rip),%rsi        # b05d <_IO_stdin_used+0x5d>
    5a29:	f3 0f 5a c0          	cvtss2sd %xmm0,%xmm0
    5a2d:	e8 4e b6 ff ff       	callq  1080 <__printf_chk@plt>
    5a32:	48 8d 35 ff 3b 00 00 	lea    0x3bff(%rip),%rsi        # 9638 <latfma512>
    5a39:	f3 0f 10 44 24 08    	movss  0x8(%rsp),%xmm0
    5a3f:	bf 00 2f 68 59       	mov    $0x59682f00,%edi
    5a44:	e8 f7 4f 00 00       	callq  aa40 <measureFunction>
    5a49:	f3 0f 10 7c 24 0c    	movss  0xc(%rsp),%xmm7
    5a4f:	bf 01 00 00 00       	mov    $0x1,%edi
    5a54:	48 8d 35 45 5d 00 00 	lea    0x5d45(%rip),%rsi        # b7a0 <_IO_stdin_used+0x7a0>
    5a5b:	b8 01 00 00 00       	mov    $0x1,%eax
    5a60:	f3 0f 5e f8          	divss  %xmm0,%xmm7
    5a64:	66 0f ef c0          	pxor   %xmm0,%xmm0
    5a68:	f3 0f 5a c7          	cvtss2sd %xmm7,%xmm0
    5a6c:	e8 0f b6 ff ff       	callq  1080 <__printf_chk@plt>
    5a71:	48 8d 35 60 32 00 00 	lea    0x3260(%rip),%rsi        # 8cd8 <mixfma256fma512>
    5a78:	f3 0f 10 44 24 08    	movss  0x8(%rsp),%xmm0
    5a7e:	bf 00 2f 68 59       	mov    $0x59682f00,%edi
    5a83:	e8 b8 4f 00 00       	callq  aa40 <measureFunction>
    5a88:	bf 01 00 00 00       	mov    $0x1,%edi
    5a8d:	b8 01 00 00 00       	mov    $0x1,%eax
    5a92:	48 8d 35 2f 5d 00 00 	lea    0x5d2f(%rip),%rsi        # b7c8 <_IO_stdin_used+0x7c8>
    5a99:	f3 0f 5a c0          	cvtss2sd %xmm0,%xmm0
    5a9d:	e8 de b5 ff ff       	callq  1080 <__printf_chk@plt>
    5aa2:	48 8d 35 20 3a 00 00 	lea    0x3a20(%rip),%rsi        # 94c9 <nemesfpu512mix21>
    5aa9:	f3 0f 10 44 24 08    	movss  0x8(%rsp),%xmm0
    5aaf:	bf 05 7a d7 03       	mov    $0x3d77a05,%edi
    5ab4:	48 c1 e7 09          	shl    $0x9,%rdi
    5ab8:	e8 83 4f 00 00       	callq  aa40 <measureFunction>
    5abd:	bf 01 00 00 00       	mov    $0x1,%edi
    5ac2:	b8 01 00 00 00       	mov    $0x1,%eax
    5ac7:	48 8d 35 22 5d 00 00 	lea    0x5d22(%rip),%rsi        # b7f0 <_IO_stdin_used+0x7f0>
    5ace:	f3 0f 5a c0          	cvtss2sd %xmm0,%xmm0
    5ad2:	e8 a9 b5 ff ff       	callq  1080 <__printf_chk@plt>
    5ad7:	48 8d 35 af 1f 00 00 	lea    0x1faf(%rip),%rsi        # 7a8d <add512int>
    5ade:	f3 0f 10 44 24 08    	movss  0x8(%rsp),%xmm0
    5ae4:	bf 00 2f 68 59       	mov    $0x59682f00,%edi
    5ae9:	e8 52 4f 00 00       	callq  aa40 <measureFunction>
    5aee:	bf 01 00 00 00       	mov    $0x1,%edi
    5af3:	b8 01 00 00 00       	mov    $0x1,%eax
    5af8:	48 8d 35 21 5d 00 00 	lea    0x5d21(%rip),%rsi        # b820 <_IO_stdin_used+0x820>
    5aff:	f3 0f 5a c0          	cvtss2sd %xmm0,%xmm0
    5b03:	e8 78 b5 ff ff       	callq  1080 <__printf_chk@plt>
    5b08:	48 8d 35 a1 23 00 00 	lea    0x23a1(%rip),%rsi        # 7eb0 <latadd256int>
    5b0f:	4c 89 f7             	mov    %r14,%rdi
    5b12:	f3 0f 10 44 24 08    	movss  0x8(%rsp),%xmm0
    5b18:	e8 23 4f 00 00       	callq  aa40 <measureFunction>
    5b1d:	f3 0f 10 7c 24 0c    	movss  0xc(%rsp),%xmm7
    5b23:	bf 01 00 00 00       	mov    $0x1,%edi
    5b28:	48 8d 35 11 5d 00 00 	lea    0x5d11(%rip),%rsi        # b840 <_IO_stdin_used+0x840>
    5b2f:	b8 01 00 00 00       	mov    $0x1,%eax
    5b34:	f3 0f 5e f8          	divss  %xmm0,%xmm7
    5b38:	66 0f ef c0          	pxor   %xmm0,%xmm0
    5b3c:	f3 0f 5a c7          	cvtss2sd %xmm7,%xmm0
    5b40:	e8 3b b5 ff ff       	callq  1080 <__printf_chk@plt>
    5b45:	48 8d 35 c5 1d 00 00 	lea    0x1dc5(%rip),%rsi        # 7911 <mul512int>
    5b4c:	f3 0f 10 44 24 08    	movss  0x8(%rsp),%xmm0
    5b52:	bf 00 2f 68 59       	mov    $0x59682f00,%edi
    5b57:	e8 e4 4e 00 00       	callq  aa40 <measureFunction>
    5b5c:	bf 01 00 00 00       	mov    $0x1,%edi
    5b61:	b8 01 00 00 00       	mov    $0x1,%eax
    5b66:	48 8d 35 fb 5c 00 00 	lea    0x5cfb(%rip),%rsi        # b868 <_IO_stdin_used+0x868>
    5b6d:	f3 0f 5a c0          	cvtss2sd %xmm0,%xmm0
    5b71:	e8 0a b5 ff ff       	callq  1080 <__printf_chk@plt>
    5b76:	48 8d 35 52 1e 00 00 	lea    0x1e52(%rip),%rsi        # 79cf <muldq512int>
    5b7d:	f3 0f 10 44 24 08    	movss  0x8(%rsp),%xmm0
    5b83:	bf 00 2f 68 59       	mov    $0x59682f00,%edi
    5b88:	e8 b3 4e 00 00       	callq  aa40 <measureFunction>
    5b8d:	bf 01 00 00 00       	mov    $0x1,%edi
    5b92:	b8 01 00 00 00       	mov    $0x1,%eax
    5b97:	48 8d 35 f2 5c 00 00 	lea    0x5cf2(%rip),%rsi        # b890 <_IO_stdin_used+0x890>
    5b9e:	f3 0f 5a c0          	cvtss2sd %xmm0,%xmm0
    5ba2:	e8 d9 b4 ff ff       	callq  1080 <__printf_chk@plt>
    5ba7:	48 8d 35 1b 26 00 00 	lea    0x261b(%rip),%rsi        # 81c9 <latmulq512int>
    5bae:	4c 89 f7             	mov    %r14,%rdi
    5bb1:	f3 0f 10 44 24 08    	movss  0x8(%rsp),%xmm0
    5bb7:	e8 84 4e 00 00       	callq  aa40 <measureFunction>
    5bbc:	f3 0f 10 6c 24 0c    	movss  0xc(%rsp),%xmm5
    5bc2:	bf 01 00 00 00       	mov    $0x1,%edi
    5bc7:	48 8d 35 f2 5c 00 00 	lea    0x5cf2(%rip),%rsi        # b8c0 <_IO_stdin_used+0x8c0>
    5bce:	b8 01 00 00 00       	mov    $0x1,%eax
    5bd3:	f3 0f 5e e8          	divss  %xmm0,%xmm5
    5bd7:	66 0f ef c0          	pxor   %xmm0,%xmm0
    5bdb:	f3 0f 5a c5          	cvtss2sd %xmm5,%xmm0
    5bdf:	e8 9c b4 ff ff       	callq  1080 <__printf_chk@plt>
    5be4:	48 8d 35 3a 24 00 00 	lea    0x243a(%rip),%rsi        # 8025 <latmul512int>
    5beb:	4c 89 f7             	mov    %r14,%rdi
    5bee:	f3 0f 10 44 24 08    	movss  0x8(%rsp),%xmm0
    5bf4:	e8 47 4e 00 00       	callq  aa40 <measureFunction>
    5bf9:	f3 0f 10 7c 24 0c    	movss  0xc(%rsp),%xmm7
    5bff:	bf 01 00 00 00       	mov    $0x1,%edi
    5c04:	48 8d 35 e5 5c 00 00 	lea    0x5ce5(%rip),%rsi        # b8f0 <_IO_stdin_used+0x8f0>
    5c0b:	b8 01 00 00 00       	mov    $0x1,%eax
    5c10:	f3 0f 5e f8          	divss  %xmm0,%xmm7
    5c14:	66 0f ef c0          	pxor   %xmm0,%xmm0
    5c18:	f3 0f 5a c7          	cvtss2sd %xmm7,%xmm0
    5c1c:	e8 5f b4 ff ff       	callq  1080 <__printf_chk@plt>
    5c21:	48 8d 35 cf 24 00 00 	lea    0x24cf(%rip),%rsi        # 80f7 <latmuldq512int>
    5c28:	4c 89 f7             	mov    %r14,%rdi
    5c2b:	f3 0f 10 44 24 08    	movss  0x8(%rsp),%xmm0
    5c31:	e8 0a 4e 00 00       	callq  aa40 <measureFunction>
    5c36:	f3 0f 10 7c 24 0c    	movss  0xc(%rsp),%xmm7
    5c3c:	bf 01 00 00 00       	mov    $0x1,%edi
    5c41:	48 8d 35 d8 5c 00 00 	lea    0x5cd8(%rip),%rsi        # b920 <_IO_stdin_used+0x920>
    5c48:	b8 01 00 00 00       	mov    $0x1,%eax
    5c4d:	f3 0f 5e f8          	divss  %xmm0,%xmm7
    5c51:	66 0f ef c0          	pxor   %xmm0,%xmm0
    5c55:	f3 0f 5a c7          	cvtss2sd %xmm7,%xmm0
    5c59:	e8 22 b4 ff ff       	callq  1080 <__printf_chk@plt>
    5c5e:	48 8d 35 bd 33 00 00 	lea    0x33bd(%rip),%rsi        # 9022 <mixfmaadd512>
    5c65:	f3 0f 10 44 24 08    	movss  0x8(%rsp),%xmm0
    5c6b:	bf 05 7a d7 03       	mov    $0x3d77a05,%edi
    5c70:	48 c1 e7 09          	shl    $0x9,%rdi
    5c74:	e8 c7 4d 00 00       	callq  aa40 <measureFunction>
    5c79:	bf 01 00 00 00       	mov    $0x1,%edi
    5c7e:	b8 01 00 00 00       	mov    $0x1,%eax
    5c83:	48 8d 35 ce 5c 00 00 	lea    0x5cce(%rip),%rsi        # b958 <_IO_stdin_used+0x958>
    5c8a:	f3 0f 5a c0          	cvtss2sd %xmm0,%xmm0
    5c8e:	e8 ed b3 ff ff       	callq  1080 <__printf_chk@plt>
    5c93:	48 8d 35 69 34 00 00 	lea    0x3469(%rip),%rsi        # 9103 <mixfma512add256>
    5c9a:	f3 0f 10 44 24 08    	movss  0x8(%rsp),%xmm0
    5ca0:	bf 05 7a d7 03       	mov    $0x3d77a05,%edi
    5ca5:	48 c1 e7 09          	shl    $0x9,%rdi
    5ca9:	e8 92 4d 00 00       	callq  aa40 <measureFunction>
    5cae:	bf 01 00 00 00       	mov    $0x1,%edi
    5cb3:	b8 01 00 00 00       	mov    $0x1,%eax
    5cb8:	48 8d 35 c1 5c 00 00 	lea    0x5cc1(%rip),%rsi        # b980 <_IO_stdin_used+0x980>
    5cbf:	f3 0f 5a c0          	cvtss2sd %xmm0,%xmm0
    5cc3:	e8 b8 b3 ff ff       	callq  1080 <__printf_chk@plt>
    5cc8:	f3 0f 10 44 24 08    	movss  0x8(%rsp),%xmm0
    5cce:	48 8d 35 db 4c 00 00 	lea    0x4cdb(%rip),%rsi        # a9b0 <load512wrapper>
    5cd5:	bf 00 2f 68 59       	mov    $0x59682f00,%edi
    5cda:	e8 61 4d 00 00       	callq  aa40 <measureFunction>
    5cdf:	bf 01 00 00 00       	mov    $0x1,%edi
    5ce4:	b8 01 00 00 00       	mov    $0x1,%eax
    5ce9:	48 8d 35 88 53 00 00 	lea    0x5388(%rip),%rsi        # b078 <_IO_stdin_used+0x78>
    5cf0:	f3 0f 5a c0          	cvtss2sd %xmm0,%xmm0
    5cf4:	e8 87 b3 ff ff       	callq  1080 <__printf_chk@plt>
    5cf9:	f3 0f 10 44 24 08    	movss  0x8(%rsp),%xmm0
    5cff:	48 8d 35 fa 4c 00 00 	lea    0x4cfa(%rip),%rsi        # aa00 <store512wrapper>
    5d06:	bf 00 2f 68 59       	mov    $0x59682f00,%edi
    5d0b:	e8 30 4d 00 00       	callq  aa40 <measureFunction>
    5d10:	bf 01 00 00 00       	mov    $0x1,%edi
    5d15:	b8 01 00 00 00       	mov    $0x1,%eax
    5d1a:	48 8d 35 74 53 00 00 	lea    0x5374(%rip),%rsi        # b095 <_IO_stdin_used+0x95>
    5d21:	f3 0f 5a c0          	cvtss2sd %xmm0,%xmm0
    5d25:	e8 56 b3 ff ff       	callq  1080 <__printf_chk@plt>
    5d2a:	48 8d 35 ee 26 00 00 	lea    0x26ee(%rip),%rsi        # 841f <aesenc128>
    5d31:	f3 0f 10 44 24 08    	movss  0x8(%rsp),%xmm0
    5d37:	bf 00 2f 68 59       	mov    $0x59682f00,%edi
    5d3c:	e8 ff 4c 00 00       	callq  aa40 <measureFunction>
    5d41:	bf 01 00 00 00       	mov    $0x1,%edi
    5d46:	b8 01 00 00 00       	mov    $0x1,%eax
    5d4b:	48 8d 35 61 53 00 00 	lea    0x5361(%rip),%rsi        # b0b3 <_IO_stdin_used+0xb3>
    5d52:	f3 0f 5a c0          	cvtss2sd %xmm0,%xmm0
    5d56:	e8 25 b3 ff ff       	callq  1080 <__printf_chk@plt>
    5d5b:	48 8d 35 21 2a 00 00 	lea    0x2a21(%rip),%rsi        # 8783 <aesdec128>
    5d62:	f3 0f 10 44 24 08    	movss  0x8(%rsp),%xmm0
    5d68:	bf 00 2f 68 59       	mov    $0x59682f00,%edi
    5d6d:	e8 ce 4c 00 00       	callq  aa40 <measureFunction>
    5d72:	bf 01 00 00 00       	mov    $0x1,%edi
    5d77:	b8 01 00 00 00       	mov    $0x1,%eax
    5d7c:	48 8d 35 46 53 00 00 	lea    0x5346(%rip),%rsi        # b0c9 <_IO_stdin_used+0xc9>
    5d83:	f3 0f 5a c0          	cvtss2sd %xmm0,%xmm0
    5d87:	e8 f4 b2 ff ff       	callq  1080 <__printf_chk@plt>
    5d8c:	48 8d 35 26 27 00 00 	lea    0x2726(%rip),%rsi        # 84b9 <aesencadd128>
    5d93:	f3 0f 10 44 24 08    	movss  0x8(%rsp),%xmm0
    5d99:	bf 00 2f 68 59       	mov    $0x59682f00,%edi
    5d9e:	e8 9d 4c 00 00       	callq  aa40 <measureFunction>
    5da3:	bf 01 00 00 00       	mov    $0x1,%edi
    5da8:	b8 01 00 00 00       	mov    $0x1,%eax
    5dad:	48 8d 35 fc 5b 00 00 	lea    0x5bfc(%rip),%rsi        # b9b0 <_IO_stdin_used+0x9b0>
    5db4:	f3 0f 5a c0          	cvtss2sd %xmm0,%xmm0
    5db8:	e8 c3 b2 ff ff       	callq  1080 <__printf_chk@plt>
    5dbd:	48 8d 35 af 27 00 00 	lea    0x27af(%rip),%rsi        # 8573 <aesencfma128>
    5dc4:	f3 0f 10 44 24 08    	movss  0x8(%rsp),%xmm0
    5dca:	bf 00 2f 68 59       	mov    $0x59682f00,%edi
    5dcf:	e8 6c 4c 00 00       	callq  aa40 <measureFunction>
    5dd4:	bf 01 00 00 00       	mov    $0x1,%edi
    5dd9:	b8 01 00 00 00       	mov    $0x1,%eax
    5dde:	48 8d 35 fa 52 00 00 	lea    0x52fa(%rip),%rsi        # b0df <_IO_stdin_used+0xdf>
    5de5:	f3 0f 5a c0          	cvtss2sd %xmm0,%xmm0
    5de9:	e8 92 b2 ff ff       	callq  1080 <__printf_chk@plt>
    5dee:	48 8d 35 f8 28 00 00 	lea    0x28f8(%rip),%rsi        # 86ed <aesencmul128>
    5df5:	f3 0f 10 44 24 08    	movss  0x8(%rsp),%xmm0
    5dfb:	bf 00 2f 68 59       	mov    $0x59682f00,%edi
    5e00:	e8 3b 4c 00 00       	callq  aa40 <measureFunction>
    5e05:	bf 01 00 00 00       	mov    $0x1,%edi
    5e0a:	b8 01 00 00 00       	mov    $0x1,%eax
    5e0f:	48 8d 35 ba 5b 00 00 	lea    0x5bba(%rip),%rsi        # b9d0 <_IO_stdin_used+0x9d0>
    5e16:	f3 0f 5a c0          	cvtss2sd %xmm0,%xmm0
    5e1a:	e8 61 b2 ff ff       	callq  1080 <__printf_chk@plt>
    5e1f:	e9 31 da ff ff       	jmpq   3855 <main+0x2795>
    5e24:	ba 0c 00 00 00       	mov    $0xc,%edx
    5e29:	48 8d 35 88 53 00 00 	lea    0x5388(%rip),%rsi        # b1b8 <_IO_stdin_used+0x1b8>
    5e30:	4c 89 ef             	mov    %r13,%rdi
    5e33:	e8 f8 b1 ff ff       	callq  1030 <strncmp@plt>
    5e38:	85 c0                	test   %eax,%eax
    5e3a:	0f 85 2b cb ff ff    	jne    296b <main+0x18ab>
    5e40:	48 8d 35 a6 28 00 00 	lea    0x28a6(%rip),%rsi        # 86ed <aesencmul128>
    5e47:	f3 0f 10 05 39 62 00 	movss  0x6239(%rip),%xmm0        # c088 <_IO_stdin_used+0x1088>
    5e4e:	00 
    5e4f:	bf 00 2f 68 59       	mov    $0x59682f00,%edi
    5e54:	e8 e7 4b 00 00       	callq  aa40 <measureFunction>
    5e59:	bf 01 00 00 00       	mov    $0x1,%edi
    5e5e:	b8 01 00 00 00       	mov    $0x1,%eax
    5e63:	48 8d 35 66 5b 00 00 	lea    0x5b66(%rip),%rsi        # b9d0 <_IO_stdin_used+0x9d0>
    5e6a:	f3 0f 5a c0          	cvtss2sd %xmm0,%xmm0
    5e6e:	e8 0d b2 ff ff       	callq  1080 <__printf_chk@plt>
    5e73:	41 83 fc 01          	cmp    $0x1,%r12d
    5e77:	0f 8f a4 d9 ff ff    	jg     3821 <main+0x2761>
    5e7d:	e9 c4 ca ff ff       	jmpq   2946 <main+0x1886>
    5e82:	ba 0c 00 00 00       	mov    $0xc,%edx
    5e87:	48 8d 35 1d 53 00 00 	lea    0x531d(%rip),%rsi        # b1ab <_IO_stdin_used+0x1ab>
    5e8e:	4c 89 ef             	mov    %r13,%rdi
    5e91:	e8 9a b1 ff ff       	callq  1030 <strncmp@plt>
    5e96:	85 c0                	test   %eax,%eax
    5e98:	75 8a                	jne    5e24 <main+0x4d64>
    5e9a:	48 8d 35 d2 26 00 00 	lea    0x26d2(%rip),%rsi        # 8573 <aesencfma128>
    5ea1:	f3 0f 10 05 df 61 00 	movss  0x61df(%rip),%xmm0        # c088 <_IO_stdin_used+0x1088>
    5ea8:	00 
    5ea9:	bf 00 2f 68 59       	mov    $0x59682f00,%edi
    5eae:	e8 8d 4b 00 00       	callq  aa40 <measureFunction>
    5eb3:	bf 01 00 00 00       	mov    $0x1,%edi
    5eb8:	b8 01 00 00 00       	mov    $0x1,%eax
    5ebd:	48 8d 35 1b 52 00 00 	lea    0x521b(%rip),%rsi        # b0df <_IO_stdin_used+0xdf>
    5ec4:	f3 0f 5a c0          	cvtss2sd %xmm0,%xmm0
    5ec8:	e8 b3 b1 ff ff       	callq  1080 <__printf_chk@plt>
    5ecd:	41 83 fc 01          	cmp    $0x1,%r12d
    5ed1:	0f 8f f7 d8 ff ff    	jg     37ce <main+0x270e>
    5ed7:	e9 6a ca ff ff       	jmpq   2946 <main+0x1886>
    5edc:	ba 0c 00 00 00       	mov    $0xc,%edx
    5ee1:	48 8d 35 b6 52 00 00 	lea    0x52b6(%rip),%rsi        # b19e <_IO_stdin_used+0x19e>
    5ee8:	4c 89 ef             	mov    %r13,%rdi
    5eeb:	e8 40 b1 ff ff       	callq  1030 <strncmp@plt>
    5ef0:	85 c0                	test   %eax,%eax
    5ef2:	75 8e                	jne    5e82 <main+0x4dc2>
    5ef4:	48 8d 35 be 25 00 00 	lea    0x25be(%rip),%rsi        # 84b9 <aesencadd128>
    5efb:	f3 0f 10 05 85 61 00 	movss  0x6185(%rip),%xmm0        # c088 <_IO_stdin_used+0x1088>
    5f02:	00 
    5f03:	bf 00 2f 68 59       	mov    $0x59682f00,%edi
    5f08:	e8 33 4b 00 00       	callq  aa40 <measureFunction>
    5f0d:	bf 01 00 00 00       	mov    $0x1,%edi
    5f12:	b8 01 00 00 00       	mov    $0x1,%eax
    5f17:	48 8d 35 92 5a 00 00 	lea    0x5a92(%rip),%rsi        # b9b0 <_IO_stdin_used+0x9b0>
    5f1e:	f3 0f 5a c0          	cvtss2sd %xmm0,%xmm0
    5f22:	e8 59 b1 ff ff       	callq  1080 <__printf_chk@plt>
    5f27:	41 83 fc 01          	cmp    $0x1,%r12d
    5f2b:	0f 8f 4a d8 ff ff    	jg     377b <main+0x26bb>
    5f31:	e9 10 ca ff ff       	jmpq   2946 <main+0x1886>
    5f36:	ba 09 00 00 00       	mov    $0x9,%edx
    5f3b:	48 8d 35 52 52 00 00 	lea    0x5252(%rip),%rsi        # b194 <_IO_stdin_used+0x194>
    5f42:	4c 89 ef             	mov    %r13,%rdi
    5f45:	e8 e6 b0 ff ff       	callq  1030 <strncmp@plt>
    5f4a:	85 c0                	test   %eax,%eax
    5f4c:	75 8e                	jne    5edc <main+0x4e1c>
    5f4e:	48 8d 35 2e 28 00 00 	lea    0x282e(%rip),%rsi        # 8783 <aesdec128>
    5f55:	f3 0f 10 05 2b 61 00 	movss  0x612b(%rip),%xmm0        # c088 <_IO_stdin_used+0x1088>
    5f5c:	00 
    5f5d:	bf 00 2f 68 59       	mov    $0x59682f00,%edi
    5f62:	e8 d9 4a 00 00       	callq  aa40 <measureFunction>
    5f67:	bf 01 00 00 00       	mov    $0x1,%edi
    5f6c:	b8 01 00 00 00       	mov    $0x1,%eax
    5f71:	48 8d 35 51 51 00 00 	lea    0x5151(%rip),%rsi        # b0c9 <_IO_stdin_used+0xc9>
    5f78:	f3 0f 5a c0          	cvtss2sd %xmm0,%xmm0
    5f7c:	e8 ff b0 ff ff       	callq  1080 <__printf_chk@plt>
    5f81:	41 83 fc 01          	cmp    $0x1,%r12d
    5f85:	0f 8f 9d d7 ff ff    	jg     3728 <main+0x2668>
    5f8b:	e9 b6 c9 ff ff       	jmpq   2946 <main+0x1886>
    5f90:	ba 09 00 00 00       	mov    $0x9,%edx
    5f95:	48 8d 35 ee 51 00 00 	lea    0x51ee(%rip),%rsi        # b18a <_IO_stdin_used+0x18a>
    5f9c:	4c 89 ef             	mov    %r13,%rdi
    5f9f:	e8 8c b0 ff ff       	callq  1030 <strncmp@plt>
    5fa4:	85 c0                	test   %eax,%eax
    5fa6:	75 8e                	jne    5f36 <main+0x4e76>
    5fa8:	48 8d 35 70 24 00 00 	lea    0x2470(%rip),%rsi        # 841f <aesenc128>
    5faf:	f3 0f 10 05 d1 60 00 	movss  0x60d1(%rip),%xmm0        # c088 <_IO_stdin_used+0x1088>
    5fb6:	00 
    5fb7:	bf 00 2f 68 59       	mov    $0x59682f00,%edi
    5fbc:	e8 7f 4a 00 00       	callq  aa40 <measureFunction>
    5fc1:	bf 01 00 00 00       	mov    $0x1,%edi
    5fc6:	b8 01 00 00 00       	mov    $0x1,%eax
    5fcb:	48 8d 35 e1 50 00 00 	lea    0x50e1(%rip),%rsi        # b0b3 <_IO_stdin_used+0xb3>
    5fd2:	f3 0f 5a c0          	cvtss2sd %xmm0,%xmm0
    5fd6:	e8 a5 b0 ff ff       	callq  1080 <__printf_chk@plt>
    5fdb:	41 83 fc 01          	cmp    $0x1,%r12d
    5fdf:	0f 8f f0 d6 ff ff    	jg     36d5 <main+0x2615>
    5fe5:	e9 5c c9 ff ff       	jmpq   2946 <main+0x1886>
    5fea:	ba 07 00 00 00       	mov    $0x7,%edx
    5fef:	48 8d 35 8b 51 00 00 	lea    0x518b(%rip),%rsi        # b181 <_IO_stdin_used+0x181>
    5ff6:	4c 89 ef             	mov    %r13,%rdi
    5ff9:	e8 32 b0 ff ff       	callq  1030 <strncmp@plt>
    5ffe:	85 c0                	test   %eax,%eax
    6000:	75 8e                	jne    5f90 <main+0x4ed0>
    6002:	f3 0f 10 05 7e 60 00 	movss  0x607e(%rip),%xmm0        # c088 <_IO_stdin_used+0x1088>
    6009:	00 
    600a:	48 8d 35 ef 49 00 00 	lea    0x49ef(%rip),%rsi        # aa00 <store512wrapper>
    6011:	bf 00 2f 68 59       	mov    $0x59682f00,%edi
    6016:	e8 25 4a 00 00       	callq  aa40 <measureFunction>
    601b:	bf 01 00 00 00       	mov    $0x1,%edi
    6020:	b8 01 00 00 00       	mov    $0x1,%eax
    6025:	48 8d 35 69 50 00 00 	lea    0x5069(%rip),%rsi        # b095 <_IO_stdin_used+0x95>
    602c:	f3 0f 5a c0          	cvtss2sd %xmm0,%xmm0
    6030:	e8 4b b0 ff ff       	callq  1080 <__printf_chk@plt>
    6035:	41 83 fc 01          	cmp    $0x1,%r12d
    6039:	0f 8f 43 d6 ff ff    	jg     3682 <main+0x25c2>
    603f:	e9 02 c9 ff ff       	jmpq   2946 <main+0x1886>
    6044:	ba 07 00 00 00       	mov    $0x7,%edx
    6049:	48 8d 35 29 51 00 00 	lea    0x5129(%rip),%rsi        # b179 <_IO_stdin_used+0x179>
    6050:	4c 89 ef             	mov    %r13,%rdi
    6053:	e8 d8 af ff ff       	callq  1030 <strncmp@plt>
    6058:	85 c0                	test   %eax,%eax
    605a:	75 8e                	jne    5fea <main+0x4f2a>
    605c:	f3 0f 10 05 24 60 00 	movss  0x6024(%rip),%xmm0        # c088 <_IO_stdin_used+0x1088>
    6063:	00 
    6064:	48 8d 35 45 49 00 00 	lea    0x4945(%rip),%rsi        # a9b0 <load512wrapper>
    606b:	bf 00 2f 68 59       	mov    $0x59682f00,%edi
    6070:	e8 cb 49 00 00       	callq  aa40 <measureFunction>
    6075:	bf 01 00 00 00       	mov    $0x1,%edi
    607a:	b8 01 00 00 00       	mov    $0x1,%eax
    607f:	48 8d 35 f2 4f 00 00 	lea    0x4ff2(%rip),%rsi        # b078 <_IO_stdin_used+0x78>
    6086:	f3 0f 5a c0          	cvtss2sd %xmm0,%xmm0
    608a:	e8 f1 af ff ff       	callq  1080 <__printf_chk@plt>
    608f:	41 83 fc 01          	cmp    $0x1,%r12d
    6093:	0f 8f 96 d5 ff ff    	jg     362f <main+0x256f>
    6099:	e9 a8 c8 ff ff       	jmpq   2946 <main+0x1886>
    609e:	ba 0b 00 00 00       	mov    $0xb,%edx
    60a3:	48 8d 35 bf 50 00 00 	lea    0x50bf(%rip),%rsi        # b169 <_IO_stdin_used+0x169>
    60aa:	4c 89 ef             	mov    %r13,%rdi
    60ad:	e8 7e af ff ff       	callq  1030 <strncmp@plt>
    60b2:	85 c0                	test   %eax,%eax
    60b4:	75 8e                	jne    6044 <main+0x4f84>
    60b6:	48 8d 35 46 30 00 00 	lea    0x3046(%rip),%rsi        # 9103 <mixfma512add256>
    60bd:	f3 0f 10 05 c3 5f 00 	movss  0x5fc3(%rip),%xmm0        # c088 <_IO_stdin_used+0x1088>
    60c4:	00 
    60c5:	bf 05 7a d7 03       	mov    $0x3d77a05,%edi
    60ca:	48 c1 e7 09          	shl    $0x9,%rdi
    60ce:	e8 6d 49 00 00       	callq  aa40 <measureFunction>
    60d3:	bf 01 00 00 00       	mov    $0x1,%edi
    60d8:	b8 01 00 00 00       	mov    $0x1,%eax
    60dd:	48 8d 35 9c 58 00 00 	lea    0x589c(%rip),%rsi        # b980 <_IO_stdin_used+0x980>
    60e4:	f3 0f 5a c0          	cvtss2sd %xmm0,%xmm0
    60e8:	e8 93 af ff ff       	callq  1080 <__printf_chk@plt>
